

Microchip MPLAB XC8 Assembler V3.10 build 20250813170317 
                                                                                               Tue Jan 20 15:42:57 2026

Microchip MPLAB XC8 C Compiler v3.10 (Free license) build 20250813170317 Og1 
     1                           	processor	16F877A
     2                           	pagewidth 120
     3                           	opt	flic
     4                           	psect	idataCOMMON,global,class=CODE,space=0,delta=2,noexec
     5                           	psect	idataBANK0,global,class=CODE,space=0,delta=2,noexec
     6                           	psect	strings,global,class=STRING,space=0,delta=2,noexec
     7                           	psect	cinit,global,class=CODE,space=0,merge=1,delta=2
     8                           	psect	bssCOMMON,global,class=COMMON,space=1,delta=1,noexec
     9                           	psect	dataCOMMON,global,class=COMMON,space=1,delta=1,noexec
    10                           	psect	bssBANK0,global,class=BANK0,space=1,delta=1,noexec
    11                           	psect	dataBANK0,global,class=BANK0,space=1,delta=1,noexec
    12                           	psect	cstackCOMMON,global,class=COMMON,space=1,delta=1,noexec
    13                           	psect	cstackBANK0,global,class=BANK0,space=1,delta=1,noexec
    14                           	psect	maintext,global,class=CODE,space=0,split=1,delta=2
    15                           	psect	text1,local,class=CODE,space=0,merge=1,delta=2
    16                           	psect	text2,local,class=CODE,space=0,merge=1,delta=2
    17                           	psect	text3,local,class=CODE,space=0,merge=1,delta=2,group=1
    18                           	psect	text4,local,class=CODE,space=0,merge=1,delta=2
    19                           	psect	text5,local,class=CODE,space=0,merge=1,delta=2
    20                           	psect	text6,local,class=CODE,space=0,merge=1,delta=2,group=1
    21                           	psect	text7,local,class=CODE,space=0,merge=1,delta=2,group=1
    22                           	psect	text8,local,class=CODE,space=0,merge=1,delta=2,group=1
    23                           	psect	text9,local,class=CODE,space=0,merge=1,delta=2,group=1
    24                           	psect	text10,local,class=CODE,space=0,merge=1,delta=2,group=1
    25                           	psect	text11,local,class=CODE,space=0,merge=1,delta=2
    26                           	psect	text12,local,class=CODE,space=0,merge=1,delta=2
    27                           	psect	text13,local,class=CODE,space=0,merge=1,delta=2
    28                           	psect	text14,local,class=CODE,space=0,merge=1,delta=2
    29                           	psect	text15,local,class=CODE,space=0,merge=1,delta=2
    30                           	psect	text16,local,class=CODE,space=0,merge=1,delta=2
    31                           	psect	text17,local,class=CODE,space=0,merge=1,delta=2
    32                           	psect	text18,local,class=CODE,space=0,merge=1,delta=2
    33                           	psect	text19,local,class=CODE,space=0,merge=1,delta=2
    34                           	psect	text20,local,class=CODE,space=0,merge=1,delta=2
    35                           	psect	text21,local,class=CODE,space=0,merge=1,delta=2
    36                           	psect	text22,local,class=CODE,space=0,merge=1,delta=2
    37                           	psect	text23,local,class=CODE,space=0,merge=1,delta=2
    38                           	psect	text24,local,class=CODE,space=0,merge=1,delta=2
    39                           	psect	intentry,global,class=CODE,space=0,delta=2
    40                           	psect	config,global,abs,ovrld,class=CONFIG,space=4,delta=2,noexec
    41                           	dabs	1,0x7E,2
    42     0000                     
    43                           ; Generated 12/10/2023 GMT
    44                           ; 
    45                           ; Copyright © 2023, Microchip Technology Inc. and its subsidiaries ("Microchip")
    46                           ; All rights reserved.
    47                           ; 
    48                           ; This software is developed by Microchip Technology Inc. and its subsidiaries ("Microch
      +                          ip").
    49                           ; 
    50                           ; Redistribution and use in source and binary forms, with or without modification, are
    51                           ; permitted provided that the following conditions are met:
    52                           ; 
    53                           ;     1. Redistributions of source code must retain the above copyright notice, this lis
      +                          t of
    54                           ;        conditions and the following disclaimer.
    55                           ; 
    56                           ;     2. Redistributions in binary form must reproduce the above copyright notice, this 
      +                          list
    57                           ;        of conditions and the following disclaimer in the documentation and/or other
    58                           ;        materials provided with the distribution. Publication is not required when
    59                           ;        this file is used in an embedded application.
    60                           ; 
    61                           ;     3. Microchip's name may not be used to endorse or promote products derived from th
      +                          is
    62                           ;        software without specific prior written permission.
    63                           ; 
    64                           ; THIS SOFTWARE IS PROVIDED BY MICROCHIP "AS IS" AND ANY EXPRESS OR IMPLIED WARRANTIES,
    65                           ; INCLUDING, BUT NOT LIMITED TO, THE IMPLIED WARRANTIES OF MERCHANTABILITY AND FITNESS F
      +                          OR
    66                           ; PURPOSE ARE DISCLAIMED.  IN NO EVENT SHALL MICROCHIP BE LIABLE FOR ANY DIRECT, INDIREC
      +                          T,
    67                           ; INCIDENTAL, SPECIAL, EXEMPLARY, OR CONSEQUENTIAL DAMAGES (INCLUDING BUT NOT LIMITED TO
    68                           ; PROCUREMENT OF SUBSTITUTE GOODS OR SERVICES; LOSS OF USE, DATA OR PROFITS; OR BUSINESS
    69                           ; INTERRUPTION) HOWSOEVER CAUSED AND ON ANY THEORY OF LIABILITY, WHETHER IN CONTRACT, ST
      +                          RICT
    70                           ; LIABILITY, OR TORT (INCLUDING NEGLIGENCE OR OTHERWISE) ARISING IN ANY WAY OUT OF THE U
      +                          SE OF
    71                           ; THIS SOFTWARE, EVEN IF ADVISED OF THE POSSIBILITY OF SUCH DAMAGE.
    72                           ; 
    73                           ; 
    74                           ; Code-generator required, PIC16F877A Definitions
    75                           ; 
    76                           ; SFR Addresses
    77     0004                     fsr             equ	4
    78     0004                     fsr0            equ	4
    79     0000                     indf            equ	0
    80     0000                     indf0           equ	0
    81     0002                     pc              equ	2
    82     0002                     pcl             equ	2
    83     000A                     pclath          equ	10
    84     0003                     status          equ	3
    85     0000                     INDF            equ	0	;# 
    86     0001                     TMR0            equ	1	;# 
    87     0002                     PCL             equ	2	;# 
    88     0003                     STATUS          equ	3	;# 
    89     0004                     FSR             equ	4	;# 
    90     0005                     PORTA           equ	5	;# 
    91     0006                     PORTB           equ	6	;# 
    92     0007                     PORTC           equ	7	;# 
    93     0008                     PORTD           equ	8	;# 
    94     0009                     PORTE           equ	9	;# 
    95     000A                     PCLATH          equ	10	;# 
    96     000B                     INTCON          equ	11	;# 
    97     000C                     PIR1            equ	12	;# 
    98     000D                     PIR2            equ	13	;# 
    99     000E                     TMR1            equ	14	;# 
   100     000E                     TMR1L           equ	14	;# 
   101     000F                     TMR1H           equ	15	;# 
   102     0010                     T1CON           equ	16	;# 
   103     0011                     TMR2            equ	17	;# 
   104     0012                     T2CON           equ	18	;# 
   105     0013                     SSPBUF          equ	19	;# 
   106     0014                     SSPCON          equ	20	;# 
   107     0015                     CCPR1           equ	21	;# 
   108     0015                     CCPR1L          equ	21	;# 
   109     0016                     CCPR1H          equ	22	;# 
   110     0017                     CCP1CON         equ	23	;# 
   111     0018                     RCSTA           equ	24	;# 
   112     0019                     TXREG           equ	25	;# 
   113     001A                     RCREG           equ	26	;# 
   114     001B                     CCPR2           equ	27	;# 
   115     001B                     CCPR2L          equ	27	;# 
   116     001C                     CCPR2H          equ	28	;# 
   117     001D                     CCP2CON         equ	29	;# 
   118     001E                     ADRESH          equ	30	;# 
   119     001F                     ADCON0          equ	31	;# 
   120     0081                     OPTION_REG      equ	129	;# 
   121     0085                     TRISA           equ	133	;# 
   122     0086                     TRISB           equ	134	;# 
   123     0087                     TRISC           equ	135	;# 
   124     0088                     TRISD           equ	136	;# 
   125     0089                     TRISE           equ	137	;# 
   126     008C                     PIE1            equ	140	;# 
   127     008D                     PIE2            equ	141	;# 
   128     008E                     PCON            equ	142	;# 
   129     0091                     SSPCON2         equ	145	;# 
   130     0092                     PR2             equ	146	;# 
   131     0093                     SSPADD          equ	147	;# 
   132     0094                     SSPSTAT         equ	148	;# 
   133     0098                     TXSTA           equ	152	;# 
   134     0099                     SPBRG           equ	153	;# 
   135     009C                     CMCON           equ	156	;# 
   136     009D                     CVRCON          equ	157	;# 
   137     009E                     ADRESL          equ	158	;# 
   138     009F                     ADCON1          equ	159	;# 
   139     010C                     EEDATA          equ	268	;# 
   140     010D                     EEADR           equ	269	;# 
   141     010E                     EEDATH          equ	270	;# 
   142     010F                     EEADRH          equ	271	;# 
   143     018C                     EECON1          equ	396	;# 
   144     018D                     EECON2          equ	397	;# 
   145     0000                     INDF            equ	0	;# 
   146     0001                     TMR0            equ	1	;# 
   147     0002                     PCL             equ	2	;# 
   148     0003                     STATUS          equ	3	;# 
   149     0004                     FSR             equ	4	;# 
   150     0005                     PORTA           equ	5	;# 
   151     0006                     PORTB           equ	6	;# 
   152     0007                     PORTC           equ	7	;# 
   153     0008                     PORTD           equ	8	;# 
   154     0009                     PORTE           equ	9	;# 
   155     000A                     PCLATH          equ	10	;# 
   156     000B                     INTCON          equ	11	;# 
   157     000C                     PIR1            equ	12	;# 
   158     000D                     PIR2            equ	13	;# 
   159     000E                     TMR1            equ	14	;# 
   160     000E                     TMR1L           equ	14	;# 
   161     000F                     TMR1H           equ	15	;# 
   162     0010                     T1CON           equ	16	;# 
   163     0011                     TMR2            equ	17	;# 
   164     0012                     T2CON           equ	18	;# 
   165     0013                     SSPBUF          equ	19	;# 
   166     0014                     SSPCON          equ	20	;# 
   167     0015                     CCPR1           equ	21	;# 
   168     0015                     CCPR1L          equ	21	;# 
   169     0016                     CCPR1H          equ	22	;# 
   170     0017                     CCP1CON         equ	23	;# 
   171     0018                     RCSTA           equ	24	;# 
   172     0019                     TXREG           equ	25	;# 
   173     001A                     RCREG           equ	26	;# 
   174     001B                     CCPR2           equ	27	;# 
   175     001B                     CCPR2L          equ	27	;# 
   176     001C                     CCPR2H          equ	28	;# 
   177     001D                     CCP2CON         equ	29	;# 
   178     001E                     ADRESH          equ	30	;# 
   179     001F                     ADCON0          equ	31	;# 
   180     0081                     OPTION_REG      equ	129	;# 
   181     0085                     TRISA           equ	133	;# 
   182     0086                     TRISB           equ	134	;# 
   183     0087                     TRISC           equ	135	;# 
   184     0088                     TRISD           equ	136	;# 
   185     0089                     TRISE           equ	137	;# 
   186     008C                     PIE1            equ	140	;# 
   187     008D                     PIE2            equ	141	;# 
   188     008E                     PCON            equ	142	;# 
   189     0091                     SSPCON2         equ	145	;# 
   190     0092                     PR2             equ	146	;# 
   191     0093                     SSPADD          equ	147	;# 
   192     0094                     SSPSTAT         equ	148	;# 
   193     0098                     TXSTA           equ	152	;# 
   194     0099                     SPBRG           equ	153	;# 
   195     009C                     CMCON           equ	156	;# 
   196     009D                     CVRCON          equ	157	;# 
   197     009E                     ADRESL          equ	158	;# 
   198     009F                     ADCON1          equ	159	;# 
   199     010C                     EEDATA          equ	268	;# 
   200     010D                     EEADR           equ	269	;# 
   201     010E                     EEDATH          equ	270	;# 
   202     010F                     EEADRH          equ	271	;# 
   203     018C                     EECON1          equ	396	;# 
   204     018D                     EECON2          equ	397	;# 
   205     0000                     INDF            equ	0	;# 
   206     0001                     TMR0            equ	1	;# 
   207     0002                     PCL             equ	2	;# 
   208     0003                     STATUS          equ	3	;# 
   209     0004                     FSR             equ	4	;# 
   210     0005                     PORTA           equ	5	;# 
   211     0006                     PORTB           equ	6	;# 
   212     0007                     PORTC           equ	7	;# 
   213     0008                     PORTD           equ	8	;# 
   214     0009                     PORTE           equ	9	;# 
   215     000A                     PCLATH          equ	10	;# 
   216     000B                     INTCON          equ	11	;# 
   217     000C                     PIR1            equ	12	;# 
   218     000D                     PIR2            equ	13	;# 
   219     000E                     TMR1            equ	14	;# 
   220     000E                     TMR1L           equ	14	;# 
   221     000F                     TMR1H           equ	15	;# 
   222     0010                     T1CON           equ	16	;# 
   223     0011                     TMR2            equ	17	;# 
   224     0012                     T2CON           equ	18	;# 
   225     0013                     SSPBUF          equ	19	;# 
   226     0014                     SSPCON          equ	20	;# 
   227     0015                     CCPR1           equ	21	;# 
   228     0015                     CCPR1L          equ	21	;# 
   229     0016                     CCPR1H          equ	22	;# 
   230     0017                     CCP1CON         equ	23	;# 
   231     0018                     RCSTA           equ	24	;# 
   232     0019                     TXREG           equ	25	;# 
   233     001A                     RCREG           equ	26	;# 
   234     001B                     CCPR2           equ	27	;# 
   235     001B                     CCPR2L          equ	27	;# 
   236     001C                     CCPR2H          equ	28	;# 
   237     001D                     CCP2CON         equ	29	;# 
   238     001E                     ADRESH          equ	30	;# 
   239     001F                     ADCON0          equ	31	;# 
   240     0081                     OPTION_REG      equ	129	;# 
   241     0085                     TRISA           equ	133	;# 
   242     0086                     TRISB           equ	134	;# 
   243     0087                     TRISC           equ	135	;# 
   244     0088                     TRISD           equ	136	;# 
   245     0089                     TRISE           equ	137	;# 
   246     008C                     PIE1            equ	140	;# 
   247     008D                     PIE2            equ	141	;# 
   248     008E                     PCON            equ	142	;# 
   249     0091                     SSPCON2         equ	145	;# 
   250     0092                     PR2             equ	146	;# 
   251     0093                     SSPADD          equ	147	;# 
   252     0094                     SSPSTAT         equ	148	;# 
   253     0098                     TXSTA           equ	152	;# 
   254     0099                     SPBRG           equ	153	;# 
   255     009C                     CMCON           equ	156	;# 
   256     009D                     CVRCON          equ	157	;# 
   257     009E                     ADRESL          equ	158	;# 
   258     009F                     ADCON1          equ	159	;# 
   259     010C                     EEDATA          equ	268	;# 
   260     010D                     EEADR           equ	269	;# 
   261     010E                     EEDATH          equ	270	;# 
   262     010F                     EEADRH          equ	271	;# 
   263     018C                     EECON1          equ	396	;# 
   264     018D                     EECON2          equ	397	;# 
   265     0000                     INDF            equ	0	;# 
   266     0001                     TMR0            equ	1	;# 
   267     0002                     PCL             equ	2	;# 
   268     0003                     STATUS          equ	3	;# 
   269     0004                     FSR             equ	4	;# 
   270     0005                     PORTA           equ	5	;# 
   271     0006                     PORTB           equ	6	;# 
   272     0007                     PORTC           equ	7	;# 
   273     0008                     PORTD           equ	8	;# 
   274     0009                     PORTE           equ	9	;# 
   275     000A                     PCLATH          equ	10	;# 
   276     000B                     INTCON          equ	11	;# 
   277     000C                     PIR1            equ	12	;# 
   278     000D                     PIR2            equ	13	;# 
   279     000E                     TMR1            equ	14	;# 
   280     000E                     TMR1L           equ	14	;# 
   281     000F                     TMR1H           equ	15	;# 
   282     0010                     T1CON           equ	16	;# 
   283     0011                     TMR2            equ	17	;# 
   284     0012                     T2CON           equ	18	;# 
   285     0013                     SSPBUF          equ	19	;# 
   286     0014                     SSPCON          equ	20	;# 
   287     0015                     CCPR1           equ	21	;# 
   288     0015                     CCPR1L          equ	21	;# 
   289     0016                     CCPR1H          equ	22	;# 
   290     0017                     CCP1CON         equ	23	;# 
   291     0018                     RCSTA           equ	24	;# 
   292     0019                     TXREG           equ	25	;# 
   293     001A                     RCREG           equ	26	;# 
   294     001B                     CCPR2           equ	27	;# 
   295     001B                     CCPR2L          equ	27	;# 
   296     001C                     CCPR2H          equ	28	;# 
   297     001D                     CCP2CON         equ	29	;# 
   298     001E                     ADRESH          equ	30	;# 
   299     001F                     ADCON0          equ	31	;# 
   300     0081                     OPTION_REG      equ	129	;# 
   301     0085                     TRISA           equ	133	;# 
   302     0086                     TRISB           equ	134	;# 
   303     0087                     TRISC           equ	135	;# 
   304     0088                     TRISD           equ	136	;# 
   305     0089                     TRISE           equ	137	;# 
   306     008C                     PIE1            equ	140	;# 
   307     008D                     PIE2            equ	141	;# 
   308     008E                     PCON            equ	142	;# 
   309     0091                     SSPCON2         equ	145	;# 
   310     0092                     PR2             equ	146	;# 
   311     0093                     SSPADD          equ	147	;# 
   312     0094                     SSPSTAT         equ	148	;# 
   313     0098                     TXSTA           equ	152	;# 
   314     0099                     SPBRG           equ	153	;# 
   315     009C                     CMCON           equ	156	;# 
   316     009D                     CVRCON          equ	157	;# 
   317     009E                     ADRESL          equ	158	;# 
   318     009F                     ADCON1          equ	159	;# 
   319     010C                     EEDATA          equ	268	;# 
   320     010D                     EEADR           equ	269	;# 
   321     010E                     EEDATH          equ	270	;# 
   322     010F                     EEADRH          equ	271	;# 
   323     018C                     EECON1          equ	396	;# 
   324     018D                     EECON2          equ	397	;# 
   325     0000                     INDF            equ	0	;# 
   326     0001                     TMR0            equ	1	;# 
   327     0002                     PCL             equ	2	;# 
   328     0003                     STATUS          equ	3	;# 
   329     0004                     FSR             equ	4	;# 
   330     0005                     PORTA           equ	5	;# 
   331     0006                     PORTB           equ	6	;# 
   332     0007                     PORTC           equ	7	;# 
   333     0008                     PORTD           equ	8	;# 
   334     0009                     PORTE           equ	9	;# 
   335     000A                     PCLATH          equ	10	;# 
   336     000B                     INTCON          equ	11	;# 
   337     000C                     PIR1            equ	12	;# 
   338     000D                     PIR2            equ	13	;# 
   339     000E                     TMR1            equ	14	;# 
   340     000E                     TMR1L           equ	14	;# 
   341     000F                     TMR1H           equ	15	;# 
   342     0010                     T1CON           equ	16	;# 
   343     0011                     TMR2            equ	17	;# 
   344     0012                     T2CON           equ	18	;# 
   345     0013                     SSPBUF          equ	19	;# 
   346     0014                     SSPCON          equ	20	;# 
   347     0015                     CCPR1           equ	21	;# 
   348     0015                     CCPR1L          equ	21	;# 
   349     0016                     CCPR1H          equ	22	;# 
   350     0017                     CCP1CON         equ	23	;# 
   351     0018                     RCSTA           equ	24	;# 
   352     0019                     TXREG           equ	25	;# 
   353     001A                     RCREG           equ	26	;# 
   354     001B                     CCPR2           equ	27	;# 
   355     001B                     CCPR2L          equ	27	;# 
   356     001C                     CCPR2H          equ	28	;# 
   357     001D                     CCP2CON         equ	29	;# 
   358     001E                     ADRESH          equ	30	;# 
   359     001F                     ADCON0          equ	31	;# 
   360     0081                     OPTION_REG      equ	129	;# 
   361     0085                     TRISA           equ	133	;# 
   362     0086                     TRISB           equ	134	;# 
   363     0087                     TRISC           equ	135	;# 
   364     0088                     TRISD           equ	136	;# 
   365     0089                     TRISE           equ	137	;# 
   366     008C                     PIE1            equ	140	;# 
   367     008D                     PIE2            equ	141	;# 
   368     008E                     PCON            equ	142	;# 
   369     0091                     SSPCON2         equ	145	;# 
   370     0092                     PR2             equ	146	;# 
   371     0093                     SSPADD          equ	147	;# 
   372     0094                     SSPSTAT         equ	148	;# 
   373     0098                     TXSTA           equ	152	;# 
   374     0099                     SPBRG           equ	153	;# 
   375     009C                     CMCON           equ	156	;# 
   376     009D                     CVRCON          equ	157	;# 
   377     009E                     ADRESL          equ	158	;# 
   378     009F                     ADCON1          equ	159	;# 
   379     010C                     EEDATA          equ	268	;# 
   380     010D                     EEADR           equ	269	;# 
   381     010E                     EEDATH          equ	270	;# 
   382     010F                     EEADRH          equ	271	;# 
   383     018C                     EECON1          equ	396	;# 
   384     018D                     EECON2          equ	397	;# 
   385     0000                     INDF            equ	0	;# 
   386     0001                     TMR0            equ	1	;# 
   387     0002                     PCL             equ	2	;# 
   388     0003                     STATUS          equ	3	;# 
   389     0004                     FSR             equ	4	;# 
   390     0005                     PORTA           equ	5	;# 
   391     0006                     PORTB           equ	6	;# 
   392     0007                     PORTC           equ	7	;# 
   393     0008                     PORTD           equ	8	;# 
   394     0009                     PORTE           equ	9	;# 
   395     000A                     PCLATH          equ	10	;# 
   396     000B                     INTCON          equ	11	;# 
   397     000C                     PIR1            equ	12	;# 
   398     000D                     PIR2            equ	13	;# 
   399     000E                     TMR1            equ	14	;# 
   400     000E                     TMR1L           equ	14	;# 
   401     000F                     TMR1H           equ	15	;# 
   402     0010                     T1CON           equ	16	;# 
   403     0011                     TMR2            equ	17	;# 
   404     0012                     T2CON           equ	18	;# 
   405     0013                     SSPBUF          equ	19	;# 
   406     0014                     SSPCON          equ	20	;# 
   407     0015                     CCPR1           equ	21	;# 
   408     0015                     CCPR1L          equ	21	;# 
   409     0016                     CCPR1H          equ	22	;# 
   410     0017                     CCP1CON         equ	23	;# 
   411     0018                     RCSTA           equ	24	;# 
   412     0019                     TXREG           equ	25	;# 
   413     001A                     RCREG           equ	26	;# 
   414     001B                     CCPR2           equ	27	;# 
   415     001B                     CCPR2L          equ	27	;# 
   416     001C                     CCPR2H          equ	28	;# 
   417     001D                     CCP2CON         equ	29	;# 
   418     001E                     ADRESH          equ	30	;# 
   419     001F                     ADCON0          equ	31	;# 
   420     0081                     OPTION_REG      equ	129	;# 
   421     0085                     TRISA           equ	133	;# 
   422     0086                     TRISB           equ	134	;# 
   423     0087                     TRISC           equ	135	;# 
   424     0088                     TRISD           equ	136	;# 
   425     0089                     TRISE           equ	137	;# 
   426     008C                     PIE1            equ	140	;# 
   427     008D                     PIE2            equ	141	;# 
   428     008E                     PCON            equ	142	;# 
   429     0091                     SSPCON2         equ	145	;# 
   430     0092                     PR2             equ	146	;# 
   431     0093                     SSPADD          equ	147	;# 
   432     0094                     SSPSTAT         equ	148	;# 
   433     0098                     TXSTA           equ	152	;# 
   434     0099                     SPBRG           equ	153	;# 
   435     009C                     CMCON           equ	156	;# 
   436     009D                     CVRCON          equ	157	;# 
   437     009E                     ADRESL          equ	158	;# 
   438     009F                     ADCON1          equ	159	;# 
   439     010C                     EEDATA          equ	268	;# 
   440     010D                     EEADR           equ	269	;# 
   441     010E                     EEDATH          equ	270	;# 
   442     010F                     EEADRH          equ	271	;# 
   443     018C                     EECON1          equ	396	;# 
   444     018D                     EECON2          equ	397	;# 
   445     0000                     INDF            equ	0	;# 
   446     0001                     TMR0            equ	1	;# 
   447     0002                     PCL             equ	2	;# 
   448     0003                     STATUS          equ	3	;# 
   449     0004                     FSR             equ	4	;# 
   450     0005                     PORTA           equ	5	;# 
   451     0006                     PORTB           equ	6	;# 
   452     0007                     PORTC           equ	7	;# 
   453     0008                     PORTD           equ	8	;# 
   454     0009                     PORTE           equ	9	;# 
   455     000A                     PCLATH          equ	10	;# 
   456     000B                     INTCON          equ	11	;# 
   457     000C                     PIR1            equ	12	;# 
   458     000D                     PIR2            equ	13	;# 
   459     000E                     TMR1            equ	14	;# 
   460     000E                     TMR1L           equ	14	;# 
   461     000F                     TMR1H           equ	15	;# 
   462     0010                     T1CON           equ	16	;# 
   463     0011                     TMR2            equ	17	;# 
   464     0012                     T2CON           equ	18	;# 
   465     0013                     SSPBUF          equ	19	;# 
   466     0014                     SSPCON          equ	20	;# 
   467     0015                     CCPR1           equ	21	;# 
   468     0015                     CCPR1L          equ	21	;# 
   469     0016                     CCPR1H          equ	22	;# 
   470     0017                     CCP1CON         equ	23	;# 
   471     0018                     RCSTA           equ	24	;# 
   472     0019                     TXREG           equ	25	;# 
   473     001A                     RCREG           equ	26	;# 
   474     001B                     CCPR2           equ	27	;# 
   475     001B                     CCPR2L          equ	27	;# 
   476     001C                     CCPR2H          equ	28	;# 
   477     001D                     CCP2CON         equ	29	;# 
   478     001E                     ADRESH          equ	30	;# 
   479     001F                     ADCON0          equ	31	;# 
   480     0081                     OPTION_REG      equ	129	;# 
   481     0085                     TRISA           equ	133	;# 
   482     0086                     TRISB           equ	134	;# 
   483     0087                     TRISC           equ	135	;# 
   484     0088                     TRISD           equ	136	;# 
   485     0089                     TRISE           equ	137	;# 
   486     008C                     PIE1            equ	140	;# 
   487     008D                     PIE2            equ	141	;# 
   488     008E                     PCON            equ	142	;# 
   489     0091                     SSPCON2         equ	145	;# 
   490     0092                     PR2             equ	146	;# 
   491     0093                     SSPADD          equ	147	;# 
   492     0094                     SSPSTAT         equ	148	;# 
   493     0098                     TXSTA           equ	152	;# 
   494     0099                     SPBRG           equ	153	;# 
   495     009C                     CMCON           equ	156	;# 
   496     009D                     CVRCON          equ	157	;# 
   497     009E                     ADRESL          equ	158	;# 
   498     009F                     ADCON1          equ	159	;# 
   499     010C                     EEDATA          equ	268	;# 
   500     010D                     EEADR           equ	269	;# 
   501     010E                     EEDATH          equ	270	;# 
   502     010F                     EEADRH          equ	271	;# 
   503     018C                     EECON1          equ	396	;# 
   504     018D                     EECON2          equ	397	;# 
   505                           
   506                           	psect	idataCOMMON
   507     04FF                     __pidataCOMMON:
   508                           
   509                           ;initializer for read_matrix_keypad@once
   510     04FF  3401               	retlw	1
   511                           
   512                           	psect	idataBANK0
   513     0003                     __pidataBANK0:
   514                           
   515                           ;initializer for _operational_flag
   516     0003  3401               	retlw	1
   517     0008                     _PORTD          set	8
   518     0090                     _T2CKPS0        set	144
   519     0091                     _T2CKPS1        set	145
   520     0093                     _TOUTPS0        set	147
   521     0094                     _TOUTPS1        set	148
   522     0095                     _TOUTPS2        set	149
   523     0096                     _TOUTPS3        set	150
   524     0061                     _TMR2IF         set	97
   525     0032                     _RB2            set	50
   526     0031                     _RB1            set	49
   527     0030                     _RB0            set	48
   528     0040                     _RD0            set	64
   529     0041                     _RD1            set	65
   530     0042                     _RD2            set	66
   531     0043                     _RD3            set	67
   532     0092                     _TMR2ON         set	146
   533     005F                     _GIE            set	95
   534     005E                     _PEIE           set	94
   535     0039                     _RC1            set	57
   536     003A                     _RC2            set	58
   537     0049                     _RE1            set	73
   538     004A                     _RE2            set	74
   539     0092                     _PR2            set	146
   540     0086                     _TRISB          set	134
   541     0088                     _TRISD          set	136
   542     0461                     _TMR2IE         set	1121
   543     040F                     _nRBPU          set	1039
   544     0439                     _TRISC1         set	1081
   545     043A                     _TRISC2         set	1082
   546     0449                     _TRISE1         set	1097
   547     044A                     _TRISE2         set	1098
   548                           
   549                           	psect	strings
   550     0500                     __pstrings:
   551     0500                     stringtab:
   552     0500                     __stringtab:
   553     0500                     stringcode:	
   554                           ;	String table - string pointers are 1 byte each
   555                           
   556     0500                     stringdir:
   557     0500  3005               	movlw	high stringdir
   558     0501  008A               	movwf	10
   559     0502  0804               	movf	4,w
   560     0503  0A84               	incf	4,f
   561     0504  0782               	addwf	2,f
   562     0505                     __stringbase:
   563     0505  3400               	retlw	0
   564     0506                     __end_of__stringtab:
   565     0506                     STR_8:
   566     0506  3453               	retlw	83	;'S'
   567     0507  3445               	retlw	69	;'E'
   568     0508  3454               	retlw	84	;'T'
   569     0509  3420               	retlw	32	;' '
   570     050A  3454               	retlw	84	;'T'
   571     050B  3449               	retlw	73	;'I'
   572     050C  344D               	retlw	77	;'M'
   573     050D  3445               	retlw	69	;'E'
   574     050E  3420               	retlw	32	;' '
   575     050F  3428               	retlw	40	;'('
   576     0510  344D               	retlw	77	;'M'
   577     0511  344D               	retlw	77	;'M'
   578     0512  343A               	retlw	58	;':'
   579     0513  3453               	retlw	83	;'S'
   580     0514  3453               	retlw	83	;'S'
   581     0515  3429               	retlw	41	;')'
   582     0516  3400               	retlw	0
   583     0517                     STR_17:
   584     0517  3453               	retlw	83	;'S'
   585     0518  3445               	retlw	69	;'E'
   586     0519  3454               	retlw	84	;'T'
   587     051A  3420               	retlw	32	;' '
   588     051B  3454               	retlw	84	;'T'
   589     051C  3445               	retlw	69	;'E'
   590     051D  344D               	retlw	77	;'M'
   591     051E  3450               	retlw	80	;'P'
   592     051F  3420               	retlw	32	;' '
   593     0520  3428               	retlw	40	;'('
   594     0521  344D               	retlw	77	;'M'
   595     0522  344D               	retlw	77	;'M'
   596     0523  343A               	retlw	58	;':'
   597     0524  3453               	retlw	83	;'S'
   598     0525  3453               	retlw	83	;'S'
   599     0526  3429               	retlw	41	;')'
   600     0527  3400               	retlw	0
   601     0528                     STR_10:
   602     0528  342A               	retlw	42	;'*'
   603     0529  343A               	retlw	58	;':'
   604     052A  3443               	retlw	67	;'C'
   605     052B  344C               	retlw	76	;'L'
   606     052C  3445               	retlw	69	;'E'
   607     052D  3441               	retlw	65	;'A'
   608     052E  3452               	retlw	82	;'R'
   609     052F  3420               	retlw	32	;' '
   610     0530  3420               	retlw	32	;' '
   611     0531  3423               	retlw	35	;'#'
   612     0532  343A               	retlw	58	;':'
   613     0533  3445               	retlw	69	;'E'
   614     0534  344E               	retlw	78	;'N'
   615     0535  3454               	retlw	84	;'T'
   616     0536  3445               	retlw	69	;'E'
   617     0537  3452               	retlw	82	;'R'
   618     0538  3400               	retlw	0
   619     0539                     STR_16:
   620     0539  3445               	retlw	69	;'E'
   621     053A  346E               	retlw	110	;'n'
   622     053B  346A               	retlw	106	;'j'
   623     053C  346F               	retlw	111	;'o'
   624     053D  3479               	retlw	121	;'y'
   625     053E  3420               	retlw	32	;' '
   626     053F  3459               	retlw	89	;'Y'
   627     0540  346F               	retlw	111	;'o'
   628     0541  3475               	retlw	117	;'u'
   629     0542  3472               	retlw	114	;'r'
   630     0543  3420               	retlw	32	;' '
   631     0544  344D               	retlw	77	;'M'
   632     0545  3465               	retlw	101	;'e'
   633     0546  3461               	retlw	97	;'a'
   634     0547  346C               	retlw	108	;'l'
   635     0548  3400               	retlw	0
   636     0549                     STR_12:
   637     0549  3434               	retlw	52	;'4'
   638     054A  342E               	retlw	46	;'.'
   639     054B  3453               	retlw	83	;'S'
   640     054C  3454               	retlw	84	;'T'
   641     054D  3441               	retlw	65	;'A'
   642     054E  3452               	retlw	82	;'R'
   643     054F  3454               	retlw	84	;'T'
   644     0550  342F               	retlw	47	;'/'
   645     0551  3452               	retlw	82	;'R'
   646     0552  3445               	retlw	69	;'E'
   647     0553  3453               	retlw	83	;'S'
   648     0554  3455               	retlw	85	;'U'
   649     0555  344D               	retlw	77	;'M'
   650     0556  3445               	retlw	69	;'E'
   651     0557  3400               	retlw	0
   652     0558                     STR_3:
   653     0558  344D               	retlw	77	;'M'
   654     0559  3469               	retlw	105	;'i'
   655     055A  3463               	retlw	99	;'c'
   656     055B  3472               	retlw	114	;'r'
   657     055C  346F               	retlw	111	;'o'
   658     055D  3477               	retlw	119	;'w'
   659     055E  3461               	retlw	97	;'a'
   660     055F  3476               	retlw	118	;'v'
   661     0560  3465               	retlw	101	;'e'
   662     0561  3420               	retlw	32	;' '
   663     0562  344F               	retlw	79	;'O'
   664     0563  3476               	retlw	118	;'v'
   665     0564  3465               	retlw	101	;'e'
   666     0565  346E               	retlw	110	;'n'
   667     0566  3400               	retlw	0
   668     0567                     STR_6:
   669     0567  3433               	retlw	51	;'3'
   670     0568  342E               	retlw	46	;'.'
   671     0569  3443               	retlw	67	;'C'
   672     056A  346F               	retlw	111	;'o'
   673     056B  346E               	retlw	110	;'n'
   674     056C  3476               	retlw	118	;'v'
   675     056D  3465               	retlw	101	;'e'
   676     056E  346E               	retlw	110	;'n'
   677     056F  3474               	retlw	116	;'t'
   678     0570  3469               	retlw	105	;'i'
   679     0571  346F               	retlw	111	;'o'
   680     0572  346E               	retlw	110	;'n'
   681     0573  3400               	retlw	0
   682     0574                     STR_2:
   683     0574  3450               	retlw	80	;'P'
   684     0575  346F               	retlw	111	;'o'
   685     0576  3477               	retlw	119	;'w'
   686     0577  3465               	retlw	101	;'e'
   687     0578  3472               	retlw	114	;'r'
   688     0579  3469               	retlw	105	;'i'
   689     057A  346E               	retlw	110	;'n'
   690     057B  3467               	retlw	103	;'g'
   691     057C  3420               	retlw	32	;' '
   692     057D  344F               	retlw	79	;'O'
   693     057E  344E               	retlw	78	;'N'
   694     057F  3400               	retlw	0
   695     0580                     STR_20:
   696     0580  3450               	retlw	80	;'P'
   697     0581  3472               	retlw	114	;'r'
   698     0582  3465               	retlw	101	;'e'
   699     0583  342D               	retlw	45	;'-'
   700     0584  3448               	retlw	72	;'H'
   701     0585  3465               	retlw	101	;'e'
   702     0586  3461               	retlw	97	;'a'
   703     0587  3474               	retlw	116	;'t'
   704     0588  3469               	retlw	105	;'i'
   705     0589  346E               	retlw	110	;'n'
   706     058A  3467               	retlw	103	;'g'
   707     058B  3400               	retlw	0
   708     058C                     STR_1:
   709     058C  3450               	retlw	80	;'P'
   710     058D  346F               	retlw	111	;'o'
   711     058E  3477               	retlw	119	;'w'
   712     058F  3465               	retlw	101	;'e'
   713     0590  3472               	retlw	114	;'r'
   714     0591  3420               	retlw	32	;' '
   715     0592  343D               	retlw	61	;'='
   716     0593  3420               	retlw	32	;' '
   717     0594  3439               	retlw	57	;'9'
   718     0595  3430               	retlw	48	;'0'
   719     0596  3457               	retlw	87	;'W'
   720     0597  3400               	retlw	0
   721     0598                     STR_21:
   722     0598  3454               	retlw	84	;'T'
   723     0599  3469               	retlw	105	;'i'
   724     059A  346D               	retlw	109	;'m'
   725     059B  3465               	retlw	101	;'e'
   726     059C  3420               	retlw	32	;' '
   727     059D  3452               	retlw	82	;'R'
   728     059E  3465               	retlw	101	;'e'
   729     059F  346D               	retlw	109	;'m'
   730     05A0  3420               	retlw	32	;' '
   731     05A1  343A               	retlw	58	;':'
   732     05A2  3400               	retlw	0
   733     05A3                     STR_11:
   734     05A3  3454               	retlw	84	;'T'
   735     05A4  3449               	retlw	73	;'I'
   736     05A5  344D               	retlw	77	;'M'
   737     05A6  3445               	retlw	69	;'E'
   738     05A7  3420               	retlw	32	;' '
   739     05A8  343D               	retlw	61	;'='
   740     05A9  3420               	retlw	32	;' '
   741     05AA  3400               	retlw	0
   742     05AB                     STR_13:
   743     05AB  3435               	retlw	53	;'5'
   744     05AC  342E               	retlw	46	;'.'
   745     05AD  3450               	retlw	80	;'P'
   746     05AE  3441               	retlw	65	;'A'
   747     05AF  3455               	retlw	85	;'U'
   748     05B0  3453               	retlw	83	;'S'
   749     05B1  3445               	retlw	69	;'E'
   750     05B2  3400               	retlw	0
   751     05B3                     STR_15:
   752     05B3  3454               	retlw	84	;'T'
   753     05B4  3449               	retlw	73	;'I'
   754     05B5  344D               	retlw	77	;'M'
   755     05B6  3445               	retlw	69	;'E'
   756     05B7  3420               	retlw	32	;' '
   757     05B8  3455               	retlw	85	;'U'
   758     05B9  3450               	retlw	80	;'P'
   759     05BA  3400               	retlw	0
   760     05BB                     STR_5:
   761     05BB  3432               	retlw	50	;'2'
   762     05BC  342E               	retlw	46	;'.'
   763     05BD  3447               	retlw	71	;'G'
   764     05BE  3472               	retlw	114	;'r'
   765     05BF  3469               	retlw	105	;'i'
   766     05C0  346C               	retlw	108	;'l'
   767     05C1  346C               	retlw	108	;'l'
   768     05C2  3400               	retlw	0
   769     05C3                     STR_4:
   770     05C3  3431               	retlw	49	;'1'
   771     05C4  342E               	retlw	46	;'.'
   772     05C5  344D               	retlw	77	;'M'
   773     05C6  3469               	retlw	105	;'i'
   774     05C7  3463               	retlw	99	;'c'
   775     05C8  3472               	retlw	114	;'r'
   776     05C9  346F               	retlw	111	;'o'
   777     05CA  3400               	retlw	0
   778     05CB                     STR_7:
   779     05CB  3434               	retlw	52	;'4'
   780     05CC  342E               	retlw	46	;'.'
   781     05CD  3453               	retlw	83	;'S'
   782     05CE  3474               	retlw	116	;'t'
   783     05CF  3461               	retlw	97	;'a'
   784     05D0  3472               	retlw	114	;'r'
   785     05D1  3474               	retlw	116	;'t'
   786     05D2  3400               	retlw	0
   787     05D3                     STR_9:
   788     05D3  3454               	retlw	84	;'T'
   789     05D4  3449               	retlw	73	;'I'
   790     05D5  344D               	retlw	77	;'M'
   791     05D6  3445               	retlw	69	;'E'
   792     05D7  3420               	retlw	32	;' '
   793     05D8  342D               	retlw	45	;'-'
   794     05D9  3400               	retlw	0
   795     05DA                     STR_18:
   796     05DA  3454               	retlw	84	;'T'
   797     05DB  3445               	retlw	69	;'E'
   798     05DC  344D               	retlw	77	;'M'
   799     05DD  3450               	retlw	80	;'P'
   800     05DE  3420               	retlw	32	;' '
   801     05DF  342D               	retlw	45	;'-'
   802     05E0  3400               	retlw	0
   803     05E1                     STR_14:
   804     05E1  3436               	retlw	54	;'6'
   805     05E2  342E               	retlw	46	;'.'
   806     05E3  3453               	retlw	83	;'S'
   807     05E4  3454               	retlw	84	;'T'
   808     05E5  344F               	retlw	79	;'O'
   809     05E6  3450               	retlw	80	;'P'
   810     05E7  3400               	retlw	0
   811     05E8                     STR_22:
   812     05E8  3473               	retlw	115	;'s'
   813     05E9  3465               	retlw	101	;'e'
   814     05EA  3463               	retlw	99	;'c'
   815     05EB  343A               	retlw	58	;':'
   816     05EC  3400               	retlw	0
   817     0528                     STR_19          equ	STR_10
   818                           
   819                           	psect	cinit
   820     000F                     start_initialization:	
   821                           ; #config settings
   822                           
   823     000F                     __initialization:
   824                           
   825                           ; Initialize objects allocated to BANK0
   826     000F  120A  118A  2003  120A  118A  	fcall	__pidataBANK0	;fetch initializer
   827     0014  00BD               	movwf	__pdataBANK0& (0+127)
   828                           
   829                           ; Initialize objects allocated to COMMON
   830     0015  120A  118A  24FF  120A  118A  	fcall	__pidataCOMMON	;fetch initializer
   831     001A  00FB               	movwf	__pdataCOMMON& (0+127)
   832                           
   833                           ; Clear objects allocated to BANK0
   834     001B  01B4               	clrf	__pbssBANK0& (0+127)
   835     001C  01B5               	clrf	(__pbssBANK0+1)& (0+127)
   836     001D  01B6               	clrf	(__pbssBANK0+2)& (0+127)
   837     001E  01B7               	clrf	(__pbssBANK0+3)& (0+127)
   838     001F  01B8               	clrf	(__pbssBANK0+4)& (0+127)
   839     0020  01B9               	clrf	(__pbssBANK0+5)& (0+127)
   840     0021  01BA               	clrf	(__pbssBANK0+6)& (0+127)
   841     0022  01BB               	clrf	(__pbssBANK0+7)& (0+127)
   842     0023  01BC               	clrf	(__pbssBANK0+8)& (0+127)
   843                           
   844                           ; Clear objects allocated to COMMON
   845     0024  01F9               	clrf	__pbssCOMMON& (0+127)
   846     0025  01FA               	clrf	(__pbssCOMMON+1)& (0+127)
   847     0026                     end_of_initialization:	
   848                           ;End of C runtime variable initialization code
   849                           
   850     0026                     __end_of__initialization:
   851     0026  0183               	clrf	3
   852     0027  120A  118A  2AF5   	ljmp	_main	;jump to C main() function
   853                           
   854                           	psect	bssCOMMON
   855     0079                     __pbssCOMMON:
   856     0079                     _count:
   857     0079                     	ds	2
   858                           
   859                           	psect	dataCOMMON
   860     007B                     __pdataCOMMON:
   861     007B                     read_matrix_keypad@once:
   862     007B                     	ds	1
   863                           
   864                           	psect	bssBANK0
   865     0034                     __pbssBANK0:
   866     0034                     set_temp@temp:
   867     0034                     	ds	2
   868     0036                     set_temp@key_count:
   869     0036                     	ds	1
   870     0037                     set_time@key_count:
   871     0037                     	ds	1
   872     0038                     set_time@blink_pos:
   873     0038                     	ds	1
   874     0039                     _pre_heat_time:
   875     0039                     	ds	1
   876     003A                     _reset_flag:
   877     003A                     	ds	1
   878     003B                     _min:
   879     003B                     	ds	1
   880     003C                     _sec:
   881     003C                     	ds	1
   882                           
   883                           	psect	dataBANK0
   884     003D                     __pdataBANK0:
   885     003D                     _operational_flag:
   886     003D                     	ds	1
   887                           
   888                           	psect	cstackCOMMON
   889     0070                     __pcstackCOMMON:
   890     0070                     ?_init_matrix_keypad:
   891     0070                     ?_init_timer2:	
   892                           ; 1 bytes @ 0x0
   893                           
   894     0070                     ?_read_matrix_keypad:	
   895                           ; 1 bytes @ 0x0
   896                           
   897     0070                     ?_clear_screen:	
   898                           ; 1 bytes @ 0x0
   899                           
   900     0070                     ?_power_on_screen:	
   901                           ; 1 bytes @ 0x0
   902                           
   903     0070                     ?_display_menu_screen:	
   904                           ; 1 bytes @ 0x0
   905                           
   906     0070                     ?_time_display:	
   907                           ; 1 bytes @ 0x0
   908                           
   909     0070                     ?_heat_food:	
   910                           ; 1 bytes @ 0x0
   911                           
   912     0070                     ?_init_display_controller:	
   913                           ; 1 bytes @ 0x0
   914                           
   915     0070                     ?_init_clcd:	
   916                           ; 1 bytes @ 0x0
   917                           
   918     0070                     ?_init_config:	
   919                           ; 1 bytes @ 0x0
   920                           
   921     0070                     ?_main:	
   922                           ; 1 bytes @ 0x0
   923                           
   924     0070                     ?_scan_keypad:	
   925                           ; 1 bytes @ 0x0
   926                           
   927     0070                     ?_isr:	
   928                           ; 1 bytes @ 0x0
   929                           
   930     0070                     ??_isr:	
   931                           ; 1 bytes @ 0x0
   932                           
   933                           
   934                           ; 1 bytes @ 0x0
   935     0070                     	ds	2
   936     0072                     ?_clcd_write:
   937     0072                     ?___bmul:	
   938                           ; 1 bytes @ 0x2
   939                           
   940     0072                     ?___wmul:	
   941                           ; 1 bytes @ 0x2
   942                           
   943     0072                     ?___awdiv:	
   944                           ; 2 bytes @ 0x2
   945                           
   946     0072                     ?___lwdiv:	
   947                           ; 2 bytes @ 0x2
   948                           
   949     0072                     clcd_write@mode:	
   950                           ; 2 bytes @ 0x2
   951                           
   952     0072                     ___bmul@multiplicand:	
   953                           ; 1 bytes @ 0x2
   954                           
   955     0072                     scan_keypad@i:	
   956                           ; 1 bytes @ 0x2
   957                           
   958     0072                     ___wmul@multiplier:	
   959                           ; 2 bytes @ 0x2
   960                           
   961     0072                     ___awdiv@divisor:	
   962                           ; 2 bytes @ 0x2
   963                           
   964     0072                     ___lwdiv@divisor:	
   965                           ; 2 bytes @ 0x2
   966                           
   967     0072                     ??_init_matrix_keypad:	
   968                           ; 2 bytes @ 0x2
   969                           
   970     0072                     ??_init_timer2:	
   971                           ; 1 bytes @ 0x2
   972                           
   973     0072                     ??_heat_food:	
   974                           ; 1 bytes @ 0x2
   975                           
   976     0072                     ??_scan_keypad:	
   977                           ; 1 bytes @ 0x2
   978                           
   979                           
   980                           ; 1 bytes @ 0x2
   981     0072                     	ds	1
   982     0073                     ___bmul@product:
   983     0073                     ??_clcd_write:	
   984                           ; 1 bytes @ 0x3
   985                           
   986     0073                     ??___bmul:	
   987                           ; 1 bytes @ 0x3
   988                           
   989                           
   990                           ; 1 bytes @ 0x3
   991     0073                     	ds	1
   992     0074                     read_matrix_keypad@mode:
   993     0074                     ___bmul@multiplier:	
   994                           ; 1 bytes @ 0x4
   995                           
   996     0074                     ___wmul@multiplicand:	
   997                           ; 1 bytes @ 0x4
   998                           
   999     0074                     ___awdiv@dividend:	
  1000                           ; 2 bytes @ 0x4
  1001                           
  1002     0074                     ___lwdiv@dividend:	
  1003                           ; 2 bytes @ 0x4
  1004                           
  1005     0074                     ??_read_matrix_keypad:	
  1006                           ; 2 bytes @ 0x4
  1007                           
  1008                           
  1009                           ; 1 bytes @ 0x4
  1010     0074                     	ds	1
  1011     0075                     clcd_write@byte:
  1012     0075                     read_matrix_keypad@key:	
  1013                           ; 1 bytes @ 0x5
  1014                           
  1015                           
  1016                           ; 1 bytes @ 0x5
  1017     0075                     	ds	1
  1018     0076                     ?_clcd_print:
  1019     0076                     clcd_print@str:	
  1020                           ; 1 bytes @ 0x6
  1021                           
  1022     0076                     ___awmod@counter:	
  1023                           ; 1 bytes @ 0x6
  1024                           
  1025     0076                     ___wmul@product:	
  1026                           ; 1 bytes @ 0x6
  1027                           
  1028     0076                     ___lwdiv@quotient:	
  1029                           ; 2 bytes @ 0x6
  1030                           
  1031     0076                     ??_clear_screen:	
  1032                           ; 2 bytes @ 0x6
  1033                           
  1034     0076                     ??_init_display_controller:	
  1035                           ; 1 bytes @ 0x6
  1036                           
  1037     0076                     ??___wmul:	
  1038                           ; 1 bytes @ 0x6
  1039                           
  1040     0076                     ??___awdiv:	
  1041                           ; 1 bytes @ 0x6
  1042                           
  1043     0076                     ??___awmod:	
  1044                           ; 1 bytes @ 0x6
  1045                           
  1046     0076                     ??___lwdiv:	
  1047                           ; 1 bytes @ 0x6
  1048                           
  1049                           
  1050                           ; 1 bytes @ 0x6
  1051     0076                     	ds	1
  1052     0077                     clcd_print@addr:
  1053     0077                     ___awmod@sign:	
  1054                           ; 1 bytes @ 0x7
  1055                           
  1056                           
  1057                           ; 1 bytes @ 0x7
  1058     0077                     	ds	1
  1059     0078                     ___lwdiv@counter:
  1060     0078                     ??_display_menu_screen:	
  1061                           ; 1 bytes @ 0x8
  1062                           
  1063     0078                     ??_init_clcd:	
  1064                           ; 1 bytes @ 0x8
  1065                           
  1066     0078                     ??_clcd_print:	
  1067                           ; 1 bytes @ 0x8
  1068                           
  1069     0078                     ??_init_config:	
  1070                           ; 1 bytes @ 0x8
  1071                           
  1072                           
  1073                           ; 1 bytes @ 0x8
  1074     0078                     	ds	1
  1075     0079                     ??_clcd_putch:
  1076     0079                     ??___lwmod:	
  1077                           ; 1 bytes @ 0x9
  1078                           
  1079                           
  1080                           	psect	cstackBANK0
  1081     0020                     __pcstackBANK0:	
  1082                           ; 1 bytes @ 0x9
  1083                           
  1084     0020                     ?___lwmod:
  1085     0020                     ___awdiv@counter:	
  1086                           ; 2 bytes @ 0x0
  1087                           
  1088     0020                     ___lwmod@divisor:	
  1089                           ; 1 bytes @ 0x0
  1090                           
  1091                           
  1092                           ; 2 bytes @ 0x0
  1093     0020                     	ds	1
  1094     0021                     ___awdiv@sign:
  1095                           
  1096                           ; 1 bytes @ 0x1
  1097     0021                     	ds	1
  1098     0022                     ___awdiv@quotient:
  1099     0022                     ___lwmod@dividend:	
  1100                           ; 2 bytes @ 0x2
  1101                           
  1102                           
  1103                           ; 2 bytes @ 0x2
  1104     0022                     	ds	2
  1105     0024                     ?___awmod:
  1106     0024                     ___lwmod@counter:	
  1107                           ; 2 bytes @ 0x4
  1108                           
  1109     0024                     ___awmod@divisor:	
  1110                           ; 1 bytes @ 0x4
  1111                           
  1112                           
  1113                           ; 2 bytes @ 0x4
  1114     0024                     	ds	2
  1115     0026                     ___awmod@dividend:
  1116                           
  1117                           ; 2 bytes @ 0x6
  1118     0026                     	ds	2
  1119     0028                     ?_clcd_putch:
  1120     0028                     clcd_putch@addr:	
  1121                           ; 1 bytes @ 0x8
  1122                           
  1123                           
  1124                           ; 1 bytes @ 0x8
  1125     0028                     	ds	1
  1126     0029                     clcd_putch@data:
  1127                           
  1128                           ; 1 bytes @ 0x9
  1129     0029                     	ds	1
  1130     002A                     ?_set_time:
  1131     002A                     ?_set_temp:	
  1132                           ; 1 bytes @ 0xA
  1133                           
  1134     002A                     set_time@reset_flag:	
  1135                           ; 1 bytes @ 0xA
  1136                           
  1137     002A                     set_temp@reset_flag:	
  1138                           ; 1 bytes @ 0xA
  1139                           
  1140     002A                     ??_power_on_screen:	
  1141                           ; 1 bytes @ 0xA
  1142                           
  1143     002A                     ??_time_display:	
  1144                           ; 1 bytes @ 0xA
  1145                           
  1146                           
  1147                           ; 1 bytes @ 0xA
  1148     002A                     	ds	1
  1149     002B                     ??_set_time:
  1150     002B                     ??_set_temp:	
  1151                           ; 1 bytes @ 0xB
  1152                           
  1153                           
  1154                           ; 1 bytes @ 0xB
  1155     002B                     	ds	2
  1156     002D                     power_on_screen@i:
  1157     002D                     set_time@wait:	
  1158                           ; 1 bytes @ 0xD
  1159                           
  1160     002D                     set_temp@wait:	
  1161                           ; 1 bytes @ 0xD
  1162                           
  1163                           
  1164                           ; 1 bytes @ 0xD
  1165     002D                     	ds	1
  1166     002E                     power_on_screen@i_175:
  1167     002E                     set_time@key:	
  1168                           ; 1 bytes @ 0xE
  1169                           
  1170     002E                     set_temp@key:	
  1171                           ; 1 bytes @ 0xE
  1172                           
  1173                           
  1174                           ; 1 bytes @ 0xE
  1175     002E                     	ds	1
  1176     002F                     ??_main:
  1177                           
  1178                           ; 1 bytes @ 0xF
  1179     002F                     	ds	3
  1180     0032                     main@start_mode:
  1181                           
  1182                           ; 1 bytes @ 0x12
  1183     0032                     	ds	1
  1184     0033                     main@key:
  1185                           
  1186                           ; 1 bytes @ 0x13
  1187     0033                     	ds	1
  1188                           
  1189                           	psect	maintext
  1190     02F5                     __pmaintext:	
  1191 ;;
  1192 ;;Main: autosize = 0, tempsize = 3, incstack = 0, save=0
  1193 ;;
  1194 ;; *************** function _main *****************
  1195 ;; Defined at:
  1196 ;;		line 39 in file "main.c"
  1197 ;; Parameters:    Size  Location     Type
  1198 ;;		None
  1199 ;; Auto vars:     Size  Location     Type
  1200 ;;  key             1   19[BANK0 ] unsigned char 
  1201 ;;  start_mode      1   18[BANK0 ] unsigned char 
  1202 ;; Return value:  Size  Location     Type
  1203 ;;                  1    wreg      void 
  1204 ;; Registers used:
  1205 ;;		wreg, fsr0l, fsr0h, status,2, status,0, pclath, cstack
  1206 ;; Tracked objects:
  1207 ;;		On entry : B00/0
  1208 ;;		On exit  : 0/0
  1209 ;;		Unchanged: 0/0
  1210 ;; Data sizes:     COMMON   BANK0   BANK1   BANK3   BANK2
  1211 ;;      Params:         0       0       0       0       0
  1212 ;;      Locals:         0       2       0       0       0
  1213 ;;      Temps:          0       3       0       0       0
  1214 ;;      Totals:         0       5       0       0       0
  1215 ;;Total ram usage:        5 bytes
  1216 ;; Hardware stack levels required when called: 5
  1217 ;; This function calls:
  1218 ;;		_clcd_print
  1219 ;;		_clear_screen
  1220 ;;		_display_menu_screen
  1221 ;;		_heat_food
  1222 ;;		_init_config
  1223 ;;		_power_on_screen
  1224 ;;		_read_matrix_keypad
  1225 ;;		_set_temp
  1226 ;;		_set_time
  1227 ;;		_time_display
  1228 ;; This function is called by:
  1229 ;;		Startup code after reset
  1230 ;; This function uses a non-reentrant model
  1231 ;;
  1232                           
  1233     02F5                     _main:	
  1234                           ;psect for function _main
  1235                           
  1236     02F5                     l2764:	
  1237                           ;incstack = 0
  1238                           ; Regs used in _main: [wreg-fsr0h+status,2+status,0+pclath+cstack]
  1239                           
  1240                           
  1241                           ;main.c: 41:                 reset_flag = 0xFF;;main.c: 42:             }
  1242     02F5  1283               	bcf	3,5	;RP0=0, select bank0
  1243     02F6  1303               	bcf	3,6	;RP1=0, select bank0
  1244     02F7  01B2               	clrf	main@start_mode
  1245     02F8                     l2766:
  1246                           
  1247                           ;main.c: 44:             {
  1248     02F8  120A  118A  27E2  120A  118A  	fcall	_init_config
  1249     02FD                     l2768:
  1250                           
  1251                           ;main.c: 47:                 operational_flag = 0x11;;main.c: 48:                 reset_
      +                          flag = 0xFF;
  1252     02FD  3001               	movlw	1
  1253     02FE  120A  118A  24DC  120A  118A  	fcall	_read_matrix_keypad
  1254     0303  1283               	bcf	3,5	;RP0=0, select bank0
  1255     0304  1303               	bcf	3,6	;RP1=0, select bank0
  1256     0305  00B3               	movwf	main@key
  1257     0306                     l2770:
  1258                           
  1259                           ;main.c: 49:             }
  1260     0306  3002               	movlw	2
  1261     0307  063D               	xorwf	_operational_flag,w
  1262     0308  1D03               	btfss	3,2
  1263     0309  2B0B               	goto	u2771
  1264     030A  2B0C               	goto	u2770
  1265     030B                     u2771:
  1266     030B  2B70               	goto	l2818
  1267     030C                     u2770:
  1268     030C                     l2772:
  1269                           
  1270                           ;main.c: 50:             else if(key == 3);main.c: 51:             {
  1271     030C  0333               	decf	main@key,w
  1272     030D  1D03               	btfss	3,2
  1273     030E  2B10               	goto	u2781
  1274     030F  2B11               	goto	u2780
  1275     0310                     u2781:
  1276     0310  2B3C               	goto	l2788
  1277     0311                     u2780:
  1278     0311                     l2774:
  1279                           
  1280                           ;main.c: 52:                 clear_screen();;main.c: 53:                 start_mode = 0;
  1281     0311  120A  158A  2608  120A  118A  	fcall	_clear_screen
  1282     0316                     l2776:
  1283                           
  1284                           ;main.c: 54:                 operational_flag = 0x13;
  1285     0316  3011               	movlw	17
  1286     0317  1283               	bcf	3,5	;RP0=0, select bank0
  1287     0318  1303               	bcf	3,6	;RP1=0, select bank0
  1288     0319  00BD               	movwf	_operational_flag
  1289     031A                     l2778:
  1290                           
  1291                           ;main.c: 55:                 reset_flag = 0xFF;
  1292     031A  01B2               	clrf	main@start_mode
  1293     031B                     l2780:
  1294                           
  1295                           ;main.c: 56:             }
  1296     031B  3087               	movlw	(low ((STR_1-__stringbase)| (0+32768)))& (0+255)
  1297     031C  00F6               	movwf	clcd_print@str
  1298     031D  30C0               	movlw	192
  1299     031E  00F7               	movwf	clcd_print@addr
  1300     031F  120A  158A  2655  120A  118A  	fcall	_clcd_print
  1301     0324                     l2782:
  1302                           
  1303                           ;main.c: 57:             else if(key == 4)
  1304     0324  3033               	movlw	51
  1305     0325  1283               	bcf	3,5	;RP0=0, select bank0
  1306     0326  1303               	bcf	3,6	;RP1=0, select bank0
  1307     0327  00B1               	movwf	??_main+2
  1308     0328  30BB               	movlw	187
  1309     0329  00B0               	movwf	??_main+1
  1310     032A  30DF               	movlw	223
  1311     032B  00AF               	movwf	??_main
  1312     032C                     u2907:
  1313     032C  0BAF               	decfsz	??_main,f
  1314     032D  2B2C               	goto	u2907
  1315     032E  0BB0               	decfsz	??_main+1,f
  1316     032F  2B2C               	goto	u2907
  1317     0330  0BB1               	decfsz	??_main+2,f
  1318     0331  2B2C               	goto	u2907
  1319     0332                     l2784:
  1320                           
  1321                           ;main.c: 58:             {
  1322     0332  120A  158A  2608  120A  118A  	fcall	_clear_screen
  1323     0337                     l2786:
  1324                           
  1325                           ;main.c: 59:                 clear_screen();
  1326     0337  30FF               	movlw	255
  1327     0338  1283               	bcf	3,5	;RP0=0, select bank0
  1328     0339  1303               	bcf	3,6	;RP1=0, select bank0
  1329     033A  00BA               	movwf	_reset_flag
  1330                           
  1331                           ;main.c: 60:                 operational_flag = 0x14;
  1332     033B  2B70               	goto	l2818
  1333     033C                     l2788:
  1334     033C  3002               	movlw	2
  1335     033D  0633               	xorwf	main@key,w
  1336     033E  1D03               	btfss	3,2
  1337     033F  2B41               	goto	u2791
  1338     0340  2B42               	goto	u2790
  1339     0341                     u2791:
  1340     0341  2B4D               	goto	l2798
  1341     0342                     u2790:
  1342     0342                     l2790:
  1343                           
  1344                           ;main.c: 62:                 reset_flag = 0xFF;;main.c: 63:             }
  1345     0342  120A  158A  2608  120A  118A  	fcall	_clear_screen
  1346     0347                     l2792:
  1347                           
  1348                           ;main.c: 64:         }
  1349     0347  1283               	bcf	3,5	;RP0=0, select bank0
  1350     0348  1303               	bcf	3,6	;RP1=0, select bank0
  1351     0349  01B2               	clrf	main@start_mode
  1352     034A                     l2794:
  1353                           
  1354                           ;main.c: 65:         if(operational_flag == 0xDD)
  1355     034A  3011               	movlw	17
  1356     034B  00BD               	movwf	_operational_flag
  1357     034C  2B37               	goto	l2786
  1358     034D                     l2798:
  1359     034D  3003               	movlw	3
  1360     034E  0633               	xorwf	main@key,w
  1361     034F  1D03               	btfss	3,2
  1362     0350  2B52               	goto	u2801
  1363     0351  2B53               	goto	u2800
  1364     0352                     u2801:
  1365     0352  2B5E               	goto	l2808
  1366     0353                     u2800:
  1367     0353                     l2800:
  1368                           
  1369                           ;main.c: 69:                 if(start_mode);main.c: 70:                 {
  1370     0353  120A  158A  2608  120A  118A  	fcall	_clear_screen
  1371     0358                     l2802:
  1372                           
  1373                           ;main.c: 71:                     sec += 30;
  1374     0358  1283               	bcf	3,5	;RP0=0, select bank0
  1375     0359  1303               	bcf	3,6	;RP1=0, select bank0
  1376     035A  01B2               	clrf	main@start_mode
  1377     035B                     l2804:
  1378                           
  1379                           ;main.c: 72:                     if(sec > 59)
  1380     035B  3013               	movlw	19
  1381     035C  00BD               	movwf	_operational_flag
  1382     035D  2B37               	goto	l2786
  1383     035E                     l2808:
  1384     035E  3004               	movlw	4
  1385     035F  0633               	xorwf	main@key,w
  1386     0360  1D03               	btfss	3,2
  1387     0361  2B63               	goto	u2811
  1388     0362  2B64               	goto	u2810
  1389     0363                     u2811:
  1390     0363  2B70               	goto	l2818
  1391     0364                     u2810:
  1392     0364                     l2810:
  1393                           
  1394                           ;main.c: 76:                     };main.c: 77:                 }
  1395     0364  120A  158A  2608  120A  118A  	fcall	_clear_screen
  1396     0369                     l2812:
  1397                           
  1398                           ;main.c: 78: 
  1399     0369  3014               	movlw	20
  1400     036A  1283               	bcf	3,5	;RP0=0, select bank0
  1401     036B  1303               	bcf	3,6	;RP1=0, select bank0
  1402     036C  00BD               	movwf	_operational_flag
  1403     036D                     l2814:
  1404                           
  1405                           ;main.c: 79:             }
  1406     036D  3001               	movlw	1
  1407     036E  00B2               	movwf	main@start_mode
  1408     036F  2B37               	goto	l2786
  1409     0370                     l2818:
  1410                           
  1411                           ;main.c: 83: 
  1412     0370  30DD               	movlw	221
  1413     0371  063D               	xorwf	_operational_flag,w
  1414     0372  1D03               	btfss	3,2
  1415     0373  2B75               	goto	u2821
  1416     0374  2B76               	goto	u2820
  1417     0375                     u2821:
  1418     0375  2BA0               	goto	l2838
  1419     0376                     u2820:
  1420     0376                     l2820:
  1421                           
  1422                           ;main.c: 84:             };main.c: 85:             else if(key == 6)
  1423     0376  3004               	movlw	4
  1424     0377  0633               	xorwf	main@key,w
  1425     0378  1D03               	btfss	3,2
  1426     0379  2B7B               	goto	u2831
  1427     037A  2B7C               	goto	u2830
  1428     037B                     u2831:
  1429     037B  2B8E               	goto	l2830
  1430     037C                     u2830:
  1431     037C                     l2822:
  1432                           
  1433                           ;main.c: 86:             {;main.c: 87:                 operational_flag = 0xBB;
  1434     037C  0832               	movf	main@start_mode,w
  1435     037D  1903               	btfsc	3,2
  1436     037E  2B80               	goto	u2841
  1437     037F  2B81               	goto	u2840
  1438     0380                     u2841:
  1439     0380  2BFC               	goto	l2868
  1440     0381                     u2840:
  1441     0381                     l2824:
  1442                           
  1443                           ;main.c: 88: ;main.c: 89:             }
  1444     0381  301E               	movlw	30
  1445     0382  07BC               	addwf	_sec,f
  1446     0383                     l2826:
  1447                           
  1448                           ;main.c: 90:         }
  1449     0383  303C               	movlw	60
  1450     0384  023C               	subwf	_sec,w
  1451     0385  1C03               	skipc
  1452     0386  2B88               	goto	u2851
  1453     0387  2B89               	goto	u2850
  1454     0388                     u2851:
  1455     0388  2BFC               	goto	l2868
  1456     0389                     u2850:
  1457     0389                     l2828:
  1458                           
  1459                           ;main.c: 91:         else if(operational_flag == 0xCC);main.c: 92:         {
  1460     0389  303C               	movlw	60
  1461     038A  02BC               	subwf	_sec,f
  1462                           
  1463                           ;main.c: 93:             if(key == 4)
  1464     038B  3001               	movlw	1
  1465     038C  07BB               	addwf	_min,f
  1466     038D  2BFC               	goto	l2868
  1467     038E                     l2830:
  1468     038E  3005               	movlw	5
  1469     038F  0633               	xorwf	main@key,w
  1470     0390  1D03               	btfss	3,2
  1471     0391  2B93               	goto	u2861
  1472     0392  2B94               	goto	u2860
  1473     0393                     u2861:
  1474     0393  2B97               	goto	l2834
  1475     0394                     u2860:
  1476     0394                     l2832:
  1477                           
  1478                           ;main.c: 99:         };main.c: 100: 
  1479     0394  30CC               	movlw	204
  1480     0395  00BD               	movwf	_operational_flag
  1481                           
  1482                           ;main.c: 102:         switch(operational_flag)
  1483     0396  2BFC               	goto	l2868
  1484     0397                     l2834:
  1485     0397  3006               	movlw	6
  1486     0398  0633               	xorwf	main@key,w
  1487     0399  1D03               	btfss	3,2
  1488     039A  2B9C               	goto	u2871
  1489     039B  2B9D               	goto	u2870
  1490     039C                     u2871:
  1491     039C  2BFC               	goto	l2868
  1492     039D                     u2870:
  1493     039D                     l2836:
  1494                           
  1495                           ;main.c: 104:             case 0x01 :;main.c: 105:                 power_on_screen();
  1496     039D  30BB               	movlw	187
  1497     039E  00BD               	movwf	_operational_flag
  1498     039F  2BFC               	goto	l2868
  1499     03A0                     l2838:
  1500     03A0  30CC               	movlw	204
  1501     03A1  063D               	xorwf	_operational_flag,w
  1502     03A2  1D03               	btfss	3,2
  1503     03A3  2BA5               	goto	u2881
  1504     03A4  2BA6               	goto	u2880
  1505     03A5                     u2881:
  1506     03A5  2BFC               	goto	l2868
  1507     03A6                     u2880:
  1508     03A6                     l2840:
  1509                           
  1510                           ;main.c: 110:             case 0x02 :;main.c: 111:                 display_menu_screen()
      +                          ;
  1511     03A6  3004               	movlw	4
  1512     03A7  0633               	xorwf	main@key,w
  1513     03A8  1D03               	btfss	3,2
  1514     03A9  2BAB               	goto	u2891
  1515     03AA  2BAC               	goto	u2890
  1516     03AB                     u2891:
  1517     03AB  2BFC               	goto	l2868
  1518     03AC                     u2890:
  1519     03AC                     l2842:
  1520                           
  1521                           ;main.c: 112:                 break;;main.c: 113: 
  1522     03AC  1507               	bsf	7,2	;volatile
  1523                           
  1524                           ;main.c: 114:             case 0x11 :
  1525     03AD  1512               	bsf	18,2	;volatile
  1526                           
  1527                           ;main.c: 115:                 set_time(key, reset_flag);
  1528     03AE  30DD               	movlw	221
  1529     03AF  00BD               	movwf	_operational_flag
  1530     03B0  2BFC               	goto	l2868
  1531     03B1                     l2844:
  1532                           
  1533                           ;main.c: 123:                 RC2 = 0;
  1534     03B1  120A  158A  27B3  120A  118A  	fcall	_power_on_screen
  1535     03B6                     l2846:
  1536                           
  1537                           ;main.c: 124:                 TMR2ON = 0;
  1538     03B6  3002               	movlw	2
  1539     03B7  1283               	bcf	3,5	;RP0=0, select bank0
  1540     03B8  1303               	bcf	3,6	;RP1=0, select bank0
  1541     03B9  00BD               	movwf	_operational_flag
  1542     03BA                     l2848:
  1543                           
  1544                           ;main.c: 125:                 break;
  1545     03BA  120A  158A  2608  120A  118A  	fcall	_clear_screen
  1546                           
  1547                           ;main.c: 126: 
  1548     03BF  2C19               	goto	l2870
  1549     03C0                     l2850:
  1550                           
  1551                           ;main.c: 129:                 TMR2ON = 0;
  1552     03C0  120A  158A  267A  120A  118A  	fcall	_display_menu_screen
  1553                           
  1554                           ;main.c: 130:                 clear_screen();
  1555     03C5  2C19               	goto	l2870
  1556     03C6                     l2852:
  1557                           
  1558                           ;main.c: 133: 
  1559     03C6  083A               	movf	_reset_flag,w
  1560     03C7  00AA               	movwf	set_time@reset_flag
  1561     03C8  0833               	movf	main@key,w
  1562     03C9  120A  118A  21BD  120A  118A  	fcall	_set_time
  1563                           
  1564                           ;main.c: 134:             case 0x12 :
  1565     03CE  2C19               	goto	l2870
  1566     03CF                     l2854:
  1567                           
  1568                           ;main.c: 137: 
  1569     03CF  120A  118A  25ED  120A  118A  	fcall	_time_display
  1570                           
  1571                           ;main.c: 138:             case 0x13 :
  1572     03D4  2C19               	goto	l2870
  1573     03D5                     l114:	
  1574                           ;main.c: 140:                 break;
  1575                           
  1576                           
  1577                           ;main.c: 141: 
  1578     03D5  1107               	bcf	7,2	;volatile
  1579                           
  1580                           ;main.c: 142:             case 0x14 :
  1581     03D6  1112               	bcf	18,2	;volatile
  1582                           
  1583                           ;main.c: 143:                 heat_food();
  1584     03D7  2C19               	goto	l2870
  1585     03D8                     l115:	
  1586                           ;main.c: 145: 
  1587                           
  1588                           
  1589                           ;main.c: 146:         }
  1590     03D8  1107               	bcf	7,2	;volatile
  1591                           
  1592                           ;main.c: 147:         reset_flag = 0x00;
  1593     03D9  1112               	bcf	18,2	;volatile
  1594     03DA                     l2856:
  1595                           
  1596                           ;main.c: 148: 
  1597     03DA  120A  158A  2608  120A  118A  	fcall	_clear_screen
  1598     03DF                     l2858:
  1599                           
  1600                           ;main.c: 149:     }
  1601     03DF  3002               	movlw	2
  1602     03E0  1283               	bcf	3,5	;RP0=0, select bank0
  1603     03E1  1303               	bcf	3,6	;RP1=0, select bank0
  1604     03E2  00BD               	movwf	_operational_flag
  1605                           
  1606                           ;main.c: 150:     return;
  1607     03E3  2C19               	goto	l2870
  1608     03E4                     l2860:
  1609     03E4  083A               	movf	_reset_flag,w
  1610     03E5  00AA               	movwf	set_time@reset_flag
  1611     03E6  0833               	movf	main@key,w
  1612     03E7  120A  118A  21BD  120A  118A  	fcall	_set_time
  1613     03EC  2C19               	goto	l2870
  1614     03ED                     l2862:
  1615     03ED  083A               	movf	_reset_flag,w
  1616     03EE  00AA               	movwf	set_temp@reset_flag
  1617     03EF  0833               	movf	main@key,w
  1618     03F0  120A  118A  202A  120A  118A  	fcall	_set_temp
  1619     03F5  2C19               	goto	l2870
  1620     03F6                     l2864:
  1621     03F6  120A  158A  25E3  120A  118A  	fcall	_heat_food
  1622     03FB  2C19               	goto	l2870
  1623     03FC                     l2868:
  1624     03FC  083D               	movf	_operational_flag,w
  1625                           
  1626                           ; Switch size 1, requested type "simple"
  1627                           ; Number of cases is 9, Range of values is 1 to 221
  1628                           ; switch strategies available:
  1629                           ; Name         Instructions Cycles
  1630                           ; simple_byte           28    15 (average)
  1631                           ; jumptable            263     9 (fixed)
  1632                           ;	Chosen strategy is simple_byte
  1633     03FD  3A01               	xorlw	1	; case 1
  1634     03FE  1903               	skipnz
  1635     03FF  2BB1               	goto	l2844
  1636     0400  3A03               	xorlw	3	; case 2
  1637     0401  1903               	skipnz
  1638     0402  2BC0               	goto	l2850
  1639     0403  3A13               	xorlw	19	; case 17
  1640     0404  1903               	skipnz
  1641     0405  2BC6               	goto	l2852
  1642     0406  3A03               	xorlw	3	; case 18
  1643     0407  1903               	skipnz
  1644     0408  2BE4               	goto	l2860
  1645     0409  3A01               	xorlw	1	; case 19
  1646     040A  1903               	skipnz
  1647     040B  2BED               	goto	l2862
  1648     040C  3A07               	xorlw	7	; case 20
  1649     040D  1903               	skipnz
  1650     040E  2BF6               	goto	l2864
  1651     040F  3AAF               	xorlw	175	; case 187
  1652     0410  1903               	skipnz
  1653     0411  2BD8               	goto	l115
  1654     0412  3A77               	xorlw	119	; case 204
  1655     0413  1903               	skipnz
  1656     0414  2BD5               	goto	l114
  1657     0415  3A11               	xorlw	17	; case 221
  1658     0416  1903               	skipnz
  1659     0417  2BCF               	goto	l2854
  1660     0418  2C19               	goto	l2870
  1661     0419                     l2870:
  1662     0419  1283               	bcf	3,5	;RP0=0, select bank0
  1663     041A  1303               	bcf	3,6	;RP1=0, select bank0
  1664     041B  01BA               	clrf	_reset_flag
  1665     041C  2AFD               	goto	l2768
  1666     041D  120A  118A  280C   	ljmp	start
  1667     0420                     __end_of_main:
  1668                           
  1669                           	psect	text1
  1670     05ED                     __ptext1:	
  1671 ;; *************** function _time_display *****************
  1672 ;; Defined at:
  1673 ;;		line 113 in file "microoven.c"
  1674 ;; Parameters:    Size  Location     Type
  1675 ;;		None
  1676 ;; Auto vars:     Size  Location     Type
  1677 ;;		None
  1678 ;; Return value:  Size  Location     Type
  1679 ;;                  1    wreg      void 
  1680 ;; Registers used:
  1681 ;;		wreg, fsr0l, fsr0h, status,2, status,0, pclath, cstack
  1682 ;; Tracked objects:
  1683 ;;		On entry : 0/0
  1684 ;;		On exit  : 0/0
  1685 ;;		Unchanged: 0/0
  1686 ;; Data sizes:     COMMON   BANK0   BANK1   BANK3   BANK2
  1687 ;;      Params:         0       0       0       0       0
  1688 ;;      Locals:         0       0       0       0       0
  1689 ;;      Temps:          0       3       0       0       0
  1690 ;;      Totals:         0       3       0       0       0
  1691 ;;Total ram usage:        3 bytes
  1692 ;; Hardware stack levels used: 1
  1693 ;; Hardware stack levels required when called: 2
  1694 ;; This function calls:
  1695 ;;		___awdiv
  1696 ;;		___awmod
  1697 ;;		_clcd_print
  1698 ;;		_clcd_putch
  1699 ;;		_clear_screen
  1700 ;; This function is called by:
  1701 ;;		_main
  1702 ;; This function uses a non-reentrant model
  1703 ;;
  1704                           
  1705     05ED                     _time_display:	
  1706                           ;psect for function _time_display
  1707                           
  1708     05ED                     l2656:	
  1709                           ;incstack = 0
  1710                           ; Regs used in _time_display: [wreg-fsr0h+status,2+status,0+pclath+cstack]
  1711                           
  1712                           
  1713                           ;microoven.c: 115:     clcd_print("TIME = ", (0x80 + 1));
  1714     05ED  309E               	movlw	(low ((STR_11-__stringbase)| (0+32768)))& (0+255)
  1715     05EE  00F6               	movwf	clcd_print@str
  1716     05EF  3081               	movlw	129
  1717     05F0  00F7               	movwf	clcd_print@addr
  1718     05F1  120A  158A  2655  120A  118A  	fcall	_clcd_print
  1719     05F6                     l2658:
  1720                           
  1721                           ;microoven.c: 116:     clcd_putch((sec/10 + '0'), (0x80 + 12));
  1722     05F6  308C               	movlw	140
  1723     05F7  1283               	bcf	3,5	;RP0=0, select bank0
  1724     05F8  1303               	bcf	3,6	;RP1=0, select bank0
  1725     05F9  00A8               	movwf	clcd_putch@addr
  1726     05FA  300A               	movlw	10
  1727     05FB  00F2               	movwf	___awdiv@divisor
  1728     05FC  3000               	movlw	0
  1729     05FD  00F3               	movwf	___awdiv@divisor+1
  1730     05FE  083C               	movf	_sec,w
  1731     05FF  00AA               	movwf	??_time_display
  1732     0600  01AB               	clrf	??_time_display+1
  1733     0601  082A               	movf	??_time_display,w
  1734     0602  00F4               	movwf	___awdiv@dividend
  1735     0603  082B               	movf	??_time_display+1,w
  1736     0604  00F5               	movwf	___awdiv@dividend+1
  1737     0605  120A  118A  277D  120A  118A  	fcall	___awdiv
  1738     060A  0872               	movf	?___awdiv,w
  1739     060B  3E30               	addlw	48
  1740     060C  120A  158A  2640  120A  118A  	fcall	_clcd_putch
  1741     0611                     l2660:
  1742                           
  1743                           ;microoven.c: 117:     clcd_putch((sec%10 + '0'), (0x80 + 13));
  1744     0611  308D               	movlw	141
  1745     0612  1283               	bcf	3,5	;RP0=0, select bank0
  1746     0613  1303               	bcf	3,6	;RP1=0, select bank0
  1747     0614  00A8               	movwf	clcd_putch@addr
  1748     0615  300A               	movlw	10
  1749     0616  00A4               	movwf	___awmod@divisor
  1750     0617  3000               	movlw	0
  1751     0618  00A5               	movwf	___awmod@divisor+1
  1752     0619  083C               	movf	_sec,w
  1753     061A  00AA               	movwf	??_time_display
  1754     061B  01AB               	clrf	??_time_display+1
  1755     061C  082A               	movf	??_time_display,w
  1756     061D  00A6               	movwf	___awmod@dividend
  1757     061E  082B               	movf	??_time_display+1,w
  1758     061F  00A7               	movwf	___awmod@dividend+1
  1759     0620  120A  118A  2483  120A  118A  	fcall	___awmod
  1760     0625  1283               	bcf	3,5	;RP0=0, select bank0
  1761     0626  1303               	bcf	3,6	;RP1=0, select bank0
  1762     0627  0824               	movf	?___awmod,w
  1763     0628  3E30               	addlw	48
  1764     0629  120A  158A  2640  120A  118A  	fcall	_clcd_putch
  1765     062E                     l2662:
  1766                           
  1767                           ;microoven.c: 118:     clcd_putch(':', (0x80 + 11));
  1768     062E  308B               	movlw	139
  1769     062F  1283               	bcf	3,5	;RP0=0, select bank0
  1770     0630  1303               	bcf	3,6	;RP1=0, select bank0
  1771     0631  00A8               	movwf	clcd_putch@addr
  1772     0632  303A               	movlw	58
  1773     0633  120A  158A  2640  120A  118A  	fcall	_clcd_putch
  1774     0638                     l2664:
  1775                           
  1776                           ;microoven.c: 119:     clcd_putch((min/10 + '0'), (0x80 + 9));
  1777     0638  3089               	movlw	137
  1778     0639  1283               	bcf	3,5	;RP0=0, select bank0
  1779     063A  1303               	bcf	3,6	;RP1=0, select bank0
  1780     063B  00A8               	movwf	clcd_putch@addr
  1781     063C  300A               	movlw	10
  1782     063D  00F2               	movwf	___awdiv@divisor
  1783     063E  3000               	movlw	0
  1784     063F  00F3               	movwf	___awdiv@divisor+1
  1785     0640  083B               	movf	_min,w
  1786     0641  00AA               	movwf	??_time_display
  1787     0642  01AB               	clrf	??_time_display+1
  1788     0643  082A               	movf	??_time_display,w
  1789     0644  00F4               	movwf	___awdiv@dividend
  1790     0645  082B               	movf	??_time_display+1,w
  1791     0646  00F5               	movwf	___awdiv@dividend+1
  1792     0647  120A  118A  277D  120A  118A  	fcall	___awdiv
  1793     064C  0872               	movf	?___awdiv,w
  1794     064D  3E30               	addlw	48
  1795     064E  120A  158A  2640  120A  118A  	fcall	_clcd_putch
  1796     0653                     l2666:
  1797                           
  1798                           ;microoven.c: 120:     clcd_putch((min%10 + '0'), (0x80 + 10));
  1799     0653  308A               	movlw	138
  1800     0654  1283               	bcf	3,5	;RP0=0, select bank0
  1801     0655  1303               	bcf	3,6	;RP1=0, select bank0
  1802     0656  00A8               	movwf	clcd_putch@addr
  1803     0657  300A               	movlw	10
  1804     0658  00A4               	movwf	___awmod@divisor
  1805     0659  3000               	movlw	0
  1806     065A  00A5               	movwf	___awmod@divisor+1
  1807     065B  083B               	movf	_min,w
  1808     065C  00AA               	movwf	??_time_display
  1809     065D  01AB               	clrf	??_time_display+1
  1810     065E  082A               	movf	??_time_display,w
  1811     065F  00A6               	movwf	___awmod@dividend
  1812     0660  082B               	movf	??_time_display+1,w
  1813     0661  00A7               	movwf	___awmod@dividend+1
  1814     0662  120A  118A  2483  120A  118A  	fcall	___awmod
  1815     0667  1283               	bcf	3,5	;RP0=0, select bank0
  1816     0668  1303               	bcf	3,6	;RP1=0, select bank0
  1817     0669  0824               	movf	?___awmod,w
  1818     066A  3E30               	addlw	48
  1819     066B  120A  158A  2640  120A  118A  	fcall	_clcd_putch
  1820     0670                     l2668:
  1821                           
  1822                           ;microoven.c: 121:     clcd_print("4.START/RESUME",(0xC0 + 1));
  1823     0670  3044               	movlw	(low ((STR_12-__stringbase)| (0+32768)))& (0+255)
  1824     0671  00F6               	movwf	clcd_print@str
  1825     0672  30C1               	movlw	193
  1826     0673  00F7               	movwf	clcd_print@addr
  1827     0674  120A  158A  2655  120A  118A  	fcall	_clcd_print
  1828     0679                     l2670:
  1829                           
  1830                           ;microoven.c: 122:     clcd_print("5.PAUSE", (0x90 + 1));
  1831     0679  30A6               	movlw	(low ((STR_13-__stringbase)| (0+32768)))& (0+255)
  1832     067A  00F6               	movwf	clcd_print@str
  1833     067B  3091               	movlw	145
  1834     067C  00F7               	movwf	clcd_print@addr
  1835     067D  120A  158A  2655  120A  118A  	fcall	_clcd_print
  1836     0682                     l2672:
  1837                           
  1838                           ;microoven.c: 123:     clcd_print("6.STOP", (0xD0 + 1));
  1839     0682  30DC               	movlw	(low ((STR_14-__stringbase)| (0+32768)))& (0+255)
  1840     0683  00F6               	movwf	clcd_print@str
  1841     0684  30D1               	movlw	209
  1842     0685  00F7               	movwf	clcd_print@addr
  1843     0686  120A  158A  2655  120A  118A  	fcall	_clcd_print
  1844     068B                     l2674:
  1845                           
  1846                           ;microoven.c: 125:     if(min == 0 && sec == 0)
  1847     068B  1283               	bcf	3,5	;RP0=0, select bank0
  1848     068C  1303               	bcf	3,6	;RP1=0, select bank0
  1849     068D  083B               	movf	_min,w
  1850     068E  1D03               	btfss	3,2
  1851     068F  2E91               	goto	u2651
  1852     0690  2E92               	goto	u2650
  1853     0691                     u2651:
  1854     0691  2ED0               	goto	l296
  1855     0692                     u2650:
  1856     0692                     l2676:
  1857     0692  083C               	movf	_sec,w
  1858     0693  1D03               	btfss	3,2
  1859     0694  2E96               	goto	u2661
  1860     0695  2E97               	goto	u2660
  1861     0696                     u2661:
  1862     0696  2ED0               	goto	l296
  1863     0697                     u2660:
  1864     0697                     l2678:
  1865                           
  1866                           ;microoven.c: 126:     {;microoven.c: 127:         clear_screen();
  1867     0697  120A  158A  2608  120A  118A  	fcall	_clear_screen
  1868     069C                     l2680:
  1869                           
  1870                           ;microoven.c: 128:         TMR2ON = 0;
  1871     069C  1283               	bcf	3,5	;RP0=0, select bank0
  1872     069D  1303               	bcf	3,6	;RP1=0, select bank0
  1873     069E  1112               	bcf	18,2	;volatile
  1874     069F                     l2682:
  1875                           
  1876                           ;microoven.c: 129:         RC2 = 0;
  1877     069F  1107               	bcf	7,2	;volatile
  1878     06A0                     l2684:
  1879                           
  1880                           ;microoven.c: 130:         clcd_print("TIME UP", (0xC0 + 4));
  1881     06A0  30AE               	movlw	(low ((STR_15-__stringbase)| (0+32768)))& (0+255)
  1882     06A1  00F6               	movwf	clcd_print@str
  1883     06A2  30C4               	movlw	196
  1884     06A3  00F7               	movwf	clcd_print@addr
  1885     06A4  120A  158A  2655  120A  118A  	fcall	_clcd_print
  1886     06A9                     l2686:
  1887                           
  1888                           ;microoven.c: 131:         clcd_print("Enjoy Your Meal", (0x90 + 0));
  1889     06A9  3034               	movlw	(low ((STR_16-__stringbase)| (0+32768)))& (0+255)
  1890     06AA  00F6               	movwf	clcd_print@str
  1891     06AB  3090               	movlw	144
  1892     06AC  00F7               	movwf	clcd_print@addr
  1893     06AD  120A  158A  2655  120A  118A  	fcall	_clcd_print
  1894     06B2                     l2688:
  1895                           
  1896                           ;microoven.c: 132:         RC1 = 1;
  1897     06B2  1283               	bcf	3,5	;RP0=0, select bank0
  1898     06B3  1303               	bcf	3,6	;RP1=0, select bank0
  1899     06B4  1487               	bsf	7,1	;volatile
  1900     06B5                     l2690:
  1901                           
  1902                           ;microoven.c: 133:         _delay((unsigned long)((1000)*(20000000/4000.0)));
  1903     06B5  301A               	movlw	26
  1904     06B6  1283               	bcf	3,5	;RP0=0, select bank0
  1905     06B7  1303               	bcf	3,6	;RP1=0, select bank0
  1906     06B8  00AC               	movwf	??_time_display+2
  1907     06B9  305E               	movlw	94
  1908     06BA  00AB               	movwf	??_time_display+1
  1909     06BB  306D               	movlw	109
  1910     06BC  00AA               	movwf	??_time_display
  1911     06BD                     u2917:
  1912     06BD  0BAA               	decfsz	??_time_display,f
  1913     06BE  2EBD               	goto	u2917
  1914     06BF  0BAB               	decfsz	??_time_display+1,f
  1915     06C0  2EBD               	goto	u2917
  1916     06C1  0BAC               	decfsz	??_time_display+2,f
  1917     06C2  2EBD               	goto	u2917
  1918     06C3  2EC4               	nop2
  1919     06C4                     l2692:
  1920                           
  1921                           ;microoven.c: 134:         RC1 = 0;
  1922     06C4  1283               	bcf	3,5	;RP0=0, select bank0
  1923     06C5  1303               	bcf	3,6	;RP1=0, select bank0
  1924     06C6  1087               	bcf	7,1	;volatile
  1925     06C7                     l2694:
  1926                           
  1927                           ;microoven.c: 135:         clear_screen();
  1928     06C7  120A  158A  2608  120A  118A  	fcall	_clear_screen
  1929     06CC                     l2696:
  1930                           
  1931                           ;microoven.c: 136:         operational_flag = 0x02;
  1932     06CC  3002               	movlw	2
  1933     06CD  1283               	bcf	3,5	;RP0=0, select bank0
  1934     06CE  1303               	bcf	3,6	;RP1=0, select bank0
  1935     06CF  00BD               	movwf	_operational_flag
  1936     06D0                     l296:
  1937     06D0  0008               	return
  1938     06D1                     __end_of_time_display:
  1939                           
  1940                           	psect	text2
  1941     01BD                     __ptext2:	
  1942 ;; *************** function _set_time *****************
  1943 ;; Defined at:
  1944 ;;		line 41 in file "microoven.c"
  1945 ;; Parameters:    Size  Location     Type
  1946 ;;  key             1    wreg     unsigned char 
  1947 ;;  reset_flag      1   10[BANK0 ] unsigned char 
  1948 ;; Auto vars:     Size  Location     Type
  1949 ;;  key             1   14[BANK0 ] unsigned char 
  1950 ;;  wait            1   13[BANK0 ] unsigned char 
  1951 ;; Return value:  Size  Location     Type
  1952 ;;                  1    wreg      void 
  1953 ;; Registers used:
  1954 ;;		wreg, fsr0l, fsr0h, status,2, status,0, pclath, cstack
  1955 ;; Tracked objects:
  1956 ;;		On entry : 0/0
  1957 ;;		On exit  : 0/0
  1958 ;;		Unchanged: 0/0
  1959 ;; Data sizes:     COMMON   BANK0   BANK1   BANK3   BANK2
  1960 ;;      Params:         0       1       0       0       0
  1961 ;;      Locals:         0       2       0       0       0
  1962 ;;      Temps:          0       2       0       0       0
  1963 ;;      Totals:         0       5       0       0       0
  1964 ;;Total ram usage:        5 bytes
  1965 ;; Hardware stack levels used: 1
  1966 ;; Hardware stack levels required when called: 2
  1967 ;; This function calls:
  1968 ;;		___awdiv
  1969 ;;		___awmod
  1970 ;;		___bmul
  1971 ;;		_clcd_print
  1972 ;;		_clcd_putch
  1973 ;;		_clear_screen
  1974 ;; This function is called by:
  1975 ;;		_main
  1976 ;; This function uses a non-reentrant model
  1977 ;;
  1978                           
  1979     01BD                     _set_time:	
  1980                           ;psect for function _set_time
  1981                           
  1982                           
  1983                           ;incstack = 0
  1984                           ; Regs used in _set_time: [wreg-fsr0h+status,2+status,0+pclath+cstack]
  1985                           ;set_time@key stored from wreg
  1986     01BD  1283               	bcf	3,5	;RP0=0, select bank0
  1987     01BE  1303               	bcf	3,6	;RP1=0, select bank0
  1988     01BF  00AE               	movwf	set_time@key
  1989     01C0                     l2596:
  1990                           
  1991                           ;microoven.c: 41: void set_time(unsigned char key, unsigned char reset_flag);microoven.c
      +                          : 42: {;microoven.c: 43:     static unsigned char blink_pos = 0, key_count = 0;;microove
      +                          n.c: 44:     if(reset_flag == 0xFF)
  1992     01C0  0A2A               	incf	set_time@reset_flag,w
  1993     01C1  1D03               	btfss	3,2
  1994     01C2  29C4               	goto	u2541
  1995     01C3  29C5               	goto	u2540
  1996     01C4                     u2541:
  1997     01C4  29CB               	goto	l2602
  1998     01C5                     u2540:
  1999     01C5                     l2598:
  2000                           
  2001                           ;microoven.c: 45:     {;microoven.c: 46:         blink_pos = 0;
  2002     01C5  01B8               	clrf	set_time@blink_pos
  2003                           
  2004                           ;microoven.c: 47:         key_count = 0;
  2005     01C6  01B7               	clrf	set_time@key_count
  2006     01C7                     l2600:
  2007                           
  2008                           ;microoven.c: 48:         key = 0xFF;
  2009     01C7  30FF               	movlw	255
  2010     01C8  00AE               	movwf	set_time@key
  2011                           
  2012                           ;microoven.c: 49:         min = 0;
  2013     01C9  01BB               	clrf	_min
  2014                           
  2015                           ;microoven.c: 50:         sec = 0;
  2016     01CA  01BC               	clrf	_sec
  2017     01CB                     l2602:
  2018                           
  2019                           ;microoven.c: 54:     clcd_print("SET TIME (MM:SS)", (0x80 + 0));
  2020     01CB  3001               	movlw	(low ((STR_8-__stringbase)| (0+32768)))& (0+255)
  2021     01CC  00F6               	movwf	clcd_print@str
  2022     01CD  3080               	movlw	128
  2023     01CE  00F7               	movwf	clcd_print@addr
  2024     01CF  120A  158A  2655  120A  118A  	fcall	_clcd_print
  2025     01D4                     l2604:
  2026                           
  2027                           ;microoven.c: 55:     clcd_print("TIME -",(0xC0 + 0));
  2028     01D4  30CE               	movlw	(low ((STR_9-__stringbase)| (0+32768)))& (0+255)
  2029     01D5  00F6               	movwf	clcd_print@str
  2030     01D6  30C0               	movlw	192
  2031     01D7  00F7               	movwf	clcd_print@addr
  2032     01D8  120A  158A  2655  120A  118A  	fcall	_clcd_print
  2033     01DD                     l2606:
  2034                           
  2035                           ;microoven.c: 56:     clcd_print("*:CLEAR  #:ENTER",(0xD0 + 0));
  2036     01DD  3023               	movlw	(low ((STR_10-__stringbase)| (0+32768)))& (0+255)
  2037     01DE  00F6               	movwf	clcd_print@str
  2038     01DF  30D0               	movlw	208
  2039     01E0  00F7               	movwf	clcd_print@addr
  2040     01E1  120A  158A  2655  120A  118A  	fcall	_clcd_print
  2041     01E6                     l2608:
  2042                           
  2043                           ;microoven.c: 58:     if(key != '*' && key != '#' && key != 0xFF)
  2044     01E6  302A               	movlw	42
  2045     01E7  1283               	bcf	3,5	;RP0=0, select bank0
  2046     01E8  1303               	bcf	3,6	;RP1=0, select bank0
  2047     01E9  062E               	xorwf	set_time@key,w
  2048     01EA  1903               	btfsc	3,2
  2049     01EB  29ED               	goto	u2551
  2050     01EC  29EE               	goto	u2550
  2051     01ED                     u2551:
  2052     01ED  2A24               	goto	l2628
  2053     01EE                     u2550:
  2054     01EE                     l2610:
  2055     01EE  3023               	movlw	35
  2056     01EF  062E               	xorwf	set_time@key,w
  2057     01F0  1903               	btfsc	3,2
  2058     01F1  29F3               	goto	u2561
  2059     01F2  29F4               	goto	u2560
  2060     01F3                     u2561:
  2061     01F3  2A24               	goto	l2628
  2062     01F4                     u2560:
  2063     01F4                     l2612:
  2064     01F4  0A2E               	incf	set_time@key,w
  2065     01F5  1903               	btfsc	3,2
  2066     01F6  29F8               	goto	u2571
  2067     01F7  29F9               	goto	u2570
  2068     01F8                     u2571:
  2069     01F8  2A24               	goto	l2628
  2070     01F9                     u2570:
  2071     01F9                     l2614:
  2072                           
  2073                           ;microoven.c: 59:     {;microoven.c: 60:         key_count ++;
  2074     01F9  3001               	movlw	1
  2075     01FA  07B7               	addwf	set_time@key_count,f
  2076     01FB                     l2616:
  2077                           
  2078                           ;microoven.c: 61:         if(key_count <= 2)
  2079     01FB  3003               	movlw	3
  2080     01FC  0237               	subwf	set_time@key_count,w
  2081     01FD  1803               	skipnc
  2082     01FE  2A00               	goto	u2581
  2083     01FF  2A01               	goto	u2580
  2084     0200                     u2581:
  2085     0200  2A0F               	goto	l2622
  2086     0201                     u2580:
  2087     0201                     l2618:
  2088                           
  2089                           ;microoven.c: 62:         {;microoven.c: 63:             sec = sec * 10 + key;
  2090     0201  300A               	movlw	10
  2091     0202  00F2               	movwf	___bmul@multiplicand
  2092     0203  083C               	movf	_sec,w
  2093     0204  120A  158A  2619  120A  118A  	fcall	___bmul
  2094     0209  1283               	bcf	3,5	;RP0=0, select bank0
  2095     020A  1303               	bcf	3,6	;RP1=0, select bank0
  2096     020B  072E               	addwf	set_time@key,w
  2097     020C  00BC               	movwf	_sec
  2098     020D                     l2620:
  2099                           
  2100                           ;microoven.c: 64:             blink_pos = 0;
  2101     020D  01B8               	clrf	set_time@blink_pos
  2102                           
  2103                           ;microoven.c: 65:         }
  2104     020E  2A45               	goto	l2644
  2105     020F                     l2622:
  2106     020F  3005               	movlw	5
  2107     0210  0237               	subwf	set_time@key_count,w
  2108     0211  1803               	skipnc
  2109     0212  2A14               	goto	u2591
  2110     0213  2A15               	goto	u2590
  2111     0214                     u2591:
  2112     0214  2A45               	goto	l2644
  2113     0215                     u2590:
  2114     0215                     l2624:
  2115                           
  2116                           ;microoven.c: 67:         {;microoven.c: 68:             min = min * 10 + key;
  2117     0215  300A               	movlw	10
  2118     0216  00F2               	movwf	___bmul@multiplicand
  2119     0217  083B               	movf	_min,w
  2120     0218  120A  158A  2619  120A  118A  	fcall	___bmul
  2121     021D  1283               	bcf	3,5	;RP0=0, select bank0
  2122     021E  1303               	bcf	3,6	;RP1=0, select bank0
  2123     021F  072E               	addwf	set_time@key,w
  2124     0220  00BB               	movwf	_min
  2125     0221                     l2626:
  2126                           
  2127                           ;microoven.c: 69:             blink_pos = 1;
  2128     0221  3001               	movlw	1
  2129     0222  00B8               	movwf	set_time@blink_pos
  2130     0223  2A45               	goto	l2644
  2131     0224                     l2628:
  2132     0224  302A               	movlw	42
  2133     0225  062E               	xorwf	set_time@key,w
  2134     0226  1D03               	btfss	3,2
  2135     0227  2A29               	goto	u2601
  2136     0228  2A2A               	goto	u2600
  2137     0229                     u2601:
  2138     0229  2A36               	goto	l2638
  2139     022A                     u2600:
  2140     022A                     l2630:
  2141                           
  2142                           ;microoven.c: 73:     {;microoven.c: 74:         if(blink_pos)
  2143     022A  0838               	movf	set_time@blink_pos,w
  2144     022B  1903               	btfsc	3,2
  2145     022C  2A2E               	goto	u2611
  2146     022D  2A2F               	goto	u2610
  2147     022E                     u2611:
  2148     022E  2A33               	goto	l2636
  2149     022F                     u2610:
  2150     022F                     l2632:
  2151                           
  2152                           ;microoven.c: 75:         {;microoven.c: 76:             min = 0;
  2153     022F  01BB               	clrf	_min
  2154     0230                     l2634:
  2155                           
  2156                           ;microoven.c: 77:             blink_pos = 2;
  2157     0230  3002               	movlw	2
  2158     0231  00B8               	movwf	set_time@blink_pos
  2159                           
  2160                           ;microoven.c: 78:         }
  2161     0232  2A45               	goto	l2644
  2162     0233                     l2636:
  2163                           
  2164                           ;microoven.c: 80:         {;microoven.c: 81:             sec = 0;
  2165     0233  01BC               	clrf	_sec
  2166                           
  2167                           ;microoven.c: 82:             key_count = 0;
  2168     0234  01B7               	clrf	set_time@key_count
  2169     0235  2A45               	goto	l2644
  2170     0236                     l2638:
  2171     0236  3023               	movlw	35
  2172     0237  062E               	xorwf	set_time@key,w
  2173     0238  1D03               	btfss	3,2
  2174     0239  2A3B               	goto	u2621
  2175     023A  2A3C               	goto	u2620
  2176     023B                     u2621:
  2177     023B  2A45               	goto	l2644
  2178     023C                     u2620:
  2179     023C                     l2640:
  2180                           
  2181                           ;microoven.c: 86:     {;microoven.c: 87:         RC2 = 1;
  2182     023C  1507               	bsf	7,2	;volatile
  2183                           
  2184                           ;microoven.c: 88:         TMR2ON = 1;
  2185     023D  1512               	bsf	18,2	;volatile
  2186                           
  2187                           ;microoven.c: 89:         operational_flag = 0xDD;
  2188     023E  30DD               	movlw	221
  2189     023F  00BD               	movwf	_operational_flag
  2190     0240                     l2642:
  2191                           
  2192                           ;microoven.c: 90:         clear_screen();
  2193     0240  120A  158A  2608  120A  118A  	fcall	_clear_screen
  2194     0245                     l2644:
  2195                           
  2196                           ;microoven.c: 93:     if(blink_pos == 0)
  2197     0245  1283               	bcf	3,5	;RP0=0, select bank0
  2198     0246  1303               	bcf	3,6	;RP1=0, select bank0
  2199     0247  0838               	movf	set_time@blink_pos,w
  2200     0248  1D03               	btfss	3,2
  2201     0249  2A4B               	goto	u2631
  2202     024A  2A4C               	goto	u2630
  2203     024B                     u2631:
  2204     024B  2A5F               	goto	l2648
  2205     024C                     u2630:
  2206     024C                     l2646:
  2207                           
  2208                           ;microoven.c: 94:     {;microoven.c: 95:         clcd_putch(' ',(0xC0 + 9));
  2209     024C  30C9               	movlw	201
  2210     024D  00A8               	movwf	clcd_putch@addr
  2211     024E  3020               	movlw	32
  2212     024F  120A  158A  2640  120A  118A  	fcall	_clcd_putch
  2213                           
  2214                           ;microoven.c: 96:         clcd_putch(' ',(0xC0 + 10));
  2215     0254  30CA               	movlw	202
  2216     0255  1283               	bcf	3,5	;RP0=0, select bank0
  2217     0256  1303               	bcf	3,6	;RP1=0, select bank0
  2218     0257  00A8               	movwf	clcd_putch@addr
  2219     0258  3020               	movlw	32
  2220     0259  120A  158A  2640  120A  118A  	fcall	_clcd_putch
  2221                           
  2222                           ;microoven.c: 97:     }
  2223     025E  2A71               	goto	l2650
  2224     025F                     l2648:
  2225                           
  2226                           ;microoven.c: 99:     {;microoven.c: 100:         clcd_putch(' ',(0xC0 + 6));
  2227     025F  30C6               	movlw	198
  2228     0260  00A8               	movwf	clcd_putch@addr
  2229     0261  3020               	movlw	32
  2230     0262  120A  158A  2640  120A  118A  	fcall	_clcd_putch
  2231                           
  2232                           ;microoven.c: 101:         clcd_putch(' ',(0xC0 + 7));
  2233     0267  30C7               	movlw	199
  2234     0268  1283               	bcf	3,5	;RP0=0, select bank0
  2235     0269  1303               	bcf	3,6	;RP1=0, select bank0
  2236     026A  00A8               	movwf	clcd_putch@addr
  2237     026B  3020               	movlw	32
  2238     026C  120A  158A  2640  120A  118A  	fcall	_clcd_putch
  2239     0271                     l2650:
  2240                           
  2241                           ;microoven.c: 104:     for (unsigned char wait = 50; wait--;);
  2242     0271  3032               	movlw	50
  2243     0272  1283               	bcf	3,5	;RP0=0, select bank0
  2244     0273  1303               	bcf	3,6	;RP1=0, select bank0
  2245     0274  00AD               	movwf	set_time@wait
  2246     0275                     l2652:
  2247     0275  3001               	movlw	1
  2248     0276  02AD               	subwf	set_time@wait,f
  2249     0277  0A2D               	incf	set_time@wait,w
  2250     0278  1D03               	btfss	3,2
  2251     0279  2A7B               	goto	u2641
  2252     027A  2A7C               	goto	u2640
  2253     027B                     u2641:
  2254     027B  2A75               	goto	l2652
  2255     027C                     u2640:
  2256     027C                     l2654:
  2257                           
  2258                           ;microoven.c: 106:     clcd_putch((sec/10 + '0'), (0xC0 + 9));
  2259     027C  30C9               	movlw	201
  2260     027D  00A8               	movwf	clcd_putch@addr
  2261     027E  300A               	movlw	10
  2262     027F  00F2               	movwf	___awdiv@divisor
  2263     0280  3000               	movlw	0
  2264     0281  00F3               	movwf	___awdiv@divisor+1
  2265     0282  083C               	movf	_sec,w
  2266     0283  00AB               	movwf	??_set_time
  2267     0284  01AC               	clrf	??_set_time+1
  2268     0285  082B               	movf	??_set_time,w
  2269     0286  00F4               	movwf	___awdiv@dividend
  2270     0287  082C               	movf	??_set_time+1,w
  2271     0288  00F5               	movwf	___awdiv@dividend+1
  2272     0289  120A  118A  277D  120A  118A  	fcall	___awdiv
  2273     028E  0872               	movf	?___awdiv,w
  2274     028F  3E30               	addlw	48
  2275     0290  120A  158A  2640  120A  118A  	fcall	_clcd_putch
  2276                           
  2277                           ;microoven.c: 107:     clcd_putch((sec%10 + '0'), (0xC0 + 10));
  2278     0295  30CA               	movlw	202
  2279     0296  1283               	bcf	3,5	;RP0=0, select bank0
  2280     0297  1303               	bcf	3,6	;RP1=0, select bank0
  2281     0298  00A8               	movwf	clcd_putch@addr
  2282     0299  300A               	movlw	10
  2283     029A  00A4               	movwf	___awmod@divisor
  2284     029B  3000               	movlw	0
  2285     029C  00A5               	movwf	___awmod@divisor+1
  2286     029D  083C               	movf	_sec,w
  2287     029E  00AB               	movwf	??_set_time
  2288     029F  01AC               	clrf	??_set_time+1
  2289     02A0  082B               	movf	??_set_time,w
  2290     02A1  00A6               	movwf	___awmod@dividend
  2291     02A2  082C               	movf	??_set_time+1,w
  2292     02A3  00A7               	movwf	___awmod@dividend+1
  2293     02A4  120A  118A  2483  120A  118A  	fcall	___awmod
  2294     02A9  1283               	bcf	3,5	;RP0=0, select bank0
  2295     02AA  1303               	bcf	3,6	;RP1=0, select bank0
  2296     02AB  0824               	movf	?___awmod,w
  2297     02AC  3E30               	addlw	48
  2298     02AD  120A  158A  2640  120A  118A  	fcall	_clcd_putch
  2299                           
  2300                           ;microoven.c: 108:     clcd_putch(':', (0xC0 + 8));
  2301     02B2  30C8               	movlw	200
  2302     02B3  1283               	bcf	3,5	;RP0=0, select bank0
  2303     02B4  1303               	bcf	3,6	;RP1=0, select bank0
  2304     02B5  00A8               	movwf	clcd_putch@addr
  2305     02B6  303A               	movlw	58
  2306     02B7  120A  158A  2640  120A  118A  	fcall	_clcd_putch
  2307                           
  2308                           ;microoven.c: 109:     clcd_putch((min/10 + '0'), (0xC0 + 6));
  2309     02BC  30C6               	movlw	198
  2310     02BD  1283               	bcf	3,5	;RP0=0, select bank0
  2311     02BE  1303               	bcf	3,6	;RP1=0, select bank0
  2312     02BF  00A8               	movwf	clcd_putch@addr
  2313     02C0  300A               	movlw	10
  2314     02C1  00F2               	movwf	___awdiv@divisor
  2315     02C2  3000               	movlw	0
  2316     02C3  00F3               	movwf	___awdiv@divisor+1
  2317     02C4  083B               	movf	_min,w
  2318     02C5  00AB               	movwf	??_set_time
  2319     02C6  01AC               	clrf	??_set_time+1
  2320     02C7  082B               	movf	??_set_time,w
  2321     02C8  00F4               	movwf	___awdiv@dividend
  2322     02C9  082C               	movf	??_set_time+1,w
  2323     02CA  00F5               	movwf	___awdiv@dividend+1
  2324     02CB  120A  118A  277D  120A  118A  	fcall	___awdiv
  2325     02D0  0872               	movf	?___awdiv,w
  2326     02D1  3E30               	addlw	48
  2327     02D2  120A  158A  2640  120A  118A  	fcall	_clcd_putch
  2328                           
  2329                           ;microoven.c: 110:     clcd_putch((min%10 + '0'), (0xC0 + 7));
  2330     02D7  30C7               	movlw	199
  2331     02D8  1283               	bcf	3,5	;RP0=0, select bank0
  2332     02D9  1303               	bcf	3,6	;RP1=0, select bank0
  2333     02DA  00A8               	movwf	clcd_putch@addr
  2334     02DB  300A               	movlw	10
  2335     02DC  00A4               	movwf	___awmod@divisor
  2336     02DD  3000               	movlw	0
  2337     02DE  00A5               	movwf	___awmod@divisor+1
  2338     02DF  083B               	movf	_min,w
  2339     02E0  00AB               	movwf	??_set_time
  2340     02E1  01AC               	clrf	??_set_time+1
  2341     02E2  082B               	movf	??_set_time,w
  2342     02E3  00A6               	movwf	___awmod@dividend
  2343     02E4  082C               	movf	??_set_time+1,w
  2344     02E5  00A7               	movwf	___awmod@dividend+1
  2345     02E6  120A  118A  2483  120A  118A  	fcall	___awmod
  2346     02EB  1283               	bcf	3,5	;RP0=0, select bank0
  2347     02EC  1303               	bcf	3,6	;RP1=0, select bank0
  2348     02ED  0824               	movf	?___awmod,w
  2349     02EE  3E30               	addlw	48
  2350     02EF  120A  158A  2640  120A  118A  	fcall	_clcd_putch
  2351     02F4                     l292:
  2352     02F4  0008               	return
  2353     02F5                     __end_of_set_time:
  2354                           
  2355                           	psect	text3
  2356     0E19                     __ptext3:	
  2357 ;; *************** function ___bmul *****************
  2358 ;; Defined at:
  2359 ;;		line 4 in file "C:\Program Files\Microchip\xc8\v3.10\pic\sources\c99\common\Umul8.c"
  2360 ;; Parameters:    Size  Location     Type
  2361 ;;  multiplier      1    wreg     unsigned char 
  2362 ;;  multiplicand    1    2[COMMON] unsigned char 
  2363 ;; Auto vars:     Size  Location     Type
  2364 ;;  multiplier      1    4[COMMON] unsigned char 
  2365 ;;  product         1    3[COMMON] unsigned char 
  2366 ;; Return value:  Size  Location     Type
  2367 ;;                  1    wreg      unsigned char 
  2368 ;; Registers used:
  2369 ;;		wreg, status,2, status,0
  2370 ;; Tracked objects:
  2371 ;;		On entry : 0/0
  2372 ;;		On exit  : 0/0
  2373 ;;		Unchanged: 0/0
  2374 ;; Data sizes:     COMMON   BANK0   BANK1   BANK3   BANK2
  2375 ;;      Params:         1       0       0       0       0
  2376 ;;      Locals:         2       0       0       0       0
  2377 ;;      Temps:          0       0       0       0       0
  2378 ;;      Totals:         3       0       0       0       0
  2379 ;;Total ram usage:        3 bytes
  2380 ;; Hardware stack levels used: 1
  2381 ;; Hardware stack levels required when called: 1
  2382 ;; This function calls:
  2383 ;;		Nothing
  2384 ;; This function is called by:
  2385 ;;		_set_time
  2386 ;; This function uses a non-reentrant model
  2387 ;;
  2388                           
  2389     0E19                     ___bmul:	
  2390                           ;psect for function ___bmul
  2391                           
  2392                           
  2393                           ;incstack = 0
  2394                           ; Regs used in ___bmul: [wreg+status,2+status,0]
  2395                           ;___bmul@multiplier stored from wreg
  2396     0E19  00F4               	movwf	___bmul@multiplier
  2397     0E1A                     l2158:
  2398     0E1A  01F3               	clrf	___bmul@product
  2399     0E1B                     l2160:
  2400     0E1B  1C74               	btfss	___bmul@multiplier,0
  2401     0E1C  2E1E               	goto	u1811
  2402     0E1D  2E1F               	goto	u1810
  2403     0E1E                     u1811:
  2404     0E1E  2E21               	goto	l2164
  2405     0E1F                     u1810:
  2406     0E1F                     l2162:
  2407     0E1F  0872               	movf	___bmul@multiplicand,w
  2408     0E20  07F3               	addwf	___bmul@product,f
  2409     0E21                     l2164:
  2410     0E21  1003               	clrc
  2411     0E22  0DF2               	rlf	___bmul@multiplicand,f
  2412     0E23                     l2166:
  2413     0E23  1003               	clrc
  2414     0E24  0CF4               	rrf	___bmul@multiplier,f
  2415     0E25  0874               	movf	___bmul@multiplier,w
  2416     0E26  1D03               	btfss	3,2
  2417     0E27  2E29               	goto	u1821
  2418     0E28  2E2A               	goto	u1820
  2419     0E29                     u1821:
  2420     0E29  2E1B               	goto	l2160
  2421     0E2A                     u1820:
  2422     0E2A                     l2168:
  2423     0E2A  0873               	movf	___bmul@product,w
  2424     0E2B                     l432:
  2425     0E2B  0008               	return
  2426     0E2C                     __end_of___bmul:
  2427                           
  2428                           	psect	text4
  2429     002A                     __ptext4:	
  2430 ;; *************** function _set_temp *****************
  2431 ;; Defined at:
  2432 ;;		line 140 in file "microoven.c"
  2433 ;; Parameters:    Size  Location     Type
  2434 ;;  key             1    wreg     unsigned char 
  2435 ;;  reset_flag      1   10[BANK0 ] unsigned char 
  2436 ;; Auto vars:     Size  Location     Type
  2437 ;;  key             1   14[BANK0 ] unsigned char 
  2438 ;;  wait            1   13[BANK0 ] unsigned char 
  2439 ;; Return value:  Size  Location     Type
  2440 ;;                  1    wreg      void 
  2441 ;; Registers used:
  2442 ;;		wreg, fsr0l, fsr0h, status,2, status,0, pclath, cstack
  2443 ;; Tracked objects:
  2444 ;;		On entry : 0/0
  2445 ;;		On exit  : 0/0
  2446 ;;		Unchanged: 0/0
  2447 ;; Data sizes:     COMMON   BANK0   BANK1   BANK3   BANK2
  2448 ;;      Params:         0       1       0       0       0
  2449 ;;      Locals:         0       2       0       0       0
  2450 ;;      Temps:          0       2       0       0       0
  2451 ;;      Totals:         0       5       0       0       0
  2452 ;;Total ram usage:        5 bytes
  2453 ;; Hardware stack levels used: 1
  2454 ;; Hardware stack levels required when called: 2
  2455 ;; This function calls:
  2456 ;;		___awdiv
  2457 ;;		___awmod
  2458 ;;		___lwdiv
  2459 ;;		___lwmod
  2460 ;;		___wmul
  2461 ;;		_clcd_print
  2462 ;;		_clcd_putch
  2463 ;;		_clear_screen
  2464 ;; This function is called by:
  2465 ;;		_main
  2466 ;; This function uses a non-reentrant model
  2467 ;;
  2468                           
  2469     002A                     _set_temp:	
  2470                           ;psect for function _set_temp
  2471                           
  2472                           
  2473                           ;incstack = 0
  2474                           ; Regs used in _set_temp: [wreg-fsr0h+status,2+status,0+pclath+cstack]
  2475                           ;set_temp@key stored from wreg
  2476     002A  1283               	bcf	3,5	;RP0=0, select bank0
  2477     002B  1303               	bcf	3,6	;RP1=0, select bank0
  2478     002C  00AE               	movwf	set_temp@key
  2479     002D                     l2698:
  2480                           
  2481                           ;microoven.c: 140: void set_temp(unsigned char key, unsigned char reset_flag);microoven.
      +                          c: 141: {;microoven.c: 142:     static unsigned char key_count;;microoven.c: 143:     st
      +                          atic unsigned int temp;;microoven.c: 145:     if(reset_flag == 0xFF)
  2482     002D  0A2A               	incf	set_temp@reset_flag,w
  2483     002E  1D03               	btfss	3,2
  2484     002F  2831               	goto	u2671
  2485     0030  2832               	goto	u2670
  2486     0031                     u2671:
  2487     0031  2837               	goto	l2704
  2488     0032                     u2670:
  2489     0032                     l2700:
  2490                           
  2491                           ;microoven.c: 146:     {;microoven.c: 147:         key = 0xFF;
  2492     0032  30FF               	movlw	255
  2493     0033  00AE               	movwf	set_temp@key
  2494     0034                     l2702:
  2495                           
  2496                           ;microoven.c: 148:         temp = 0;
  2497     0034  01B4               	clrf	set_temp@temp
  2498     0035  01B5               	clrf	set_temp@temp+1
  2499                           
  2500                           ;microoven.c: 149:         key_count = 0;
  2501     0036  01B6               	clrf	set_temp@key_count
  2502     0037                     l2704:
  2503                           
  2504                           ;microoven.c: 151:     clcd_print("SET TEMP (MM:SS)", (0x80 + 0));
  2505     0037  3012               	movlw	(low ((STR_17-__stringbase)| (0+32768)))& (0+255)
  2506     0038  00F6               	movwf	clcd_print@str
  2507     0039  3080               	movlw	128
  2508     003A  00F7               	movwf	clcd_print@addr
  2509     003B  120A  158A  2655  120A  118A  	fcall	_clcd_print
  2510     0040                     l2706:
  2511                           
  2512                           ;microoven.c: 152:     clcd_print("TEMP -",(0xC0 + 0));
  2513     0040  30D5               	movlw	(low ((STR_18-__stringbase)| (0+32768)))& (0+255)
  2514     0041  00F6               	movwf	clcd_print@str
  2515     0042  30C0               	movlw	192
  2516     0043  00F7               	movwf	clcd_print@addr
  2517     0044  120A  158A  2655  120A  118A  	fcall	_clcd_print
  2518     0049                     l2708:
  2519                           
  2520                           ;microoven.c: 153:     clcd_print("*:CLEAR  #:ENTER",(0xD0 + 0));
  2521     0049  3023               	movlw	(low ((STR_10-__stringbase)| (0+32768)))& (0+255)
  2522     004A  00F6               	movwf	clcd_print@str
  2523     004B  30D0               	movlw	208
  2524     004C  00F7               	movwf	clcd_print@addr
  2525     004D  120A  158A  2655  120A  118A  	fcall	_clcd_print
  2526     0052                     l2710:
  2527                           
  2528                           ;microoven.c: 154:     clcd_putch(' ',(0xC0 + 8));
  2529     0052  30C8               	movlw	200
  2530     0053  1283               	bcf	3,5	;RP0=0, select bank0
  2531     0054  1303               	bcf	3,6	;RP1=0, select bank0
  2532     0055  00A8               	movwf	clcd_putch@addr
  2533     0056  3020               	movlw	32
  2534     0057  120A  158A  2640  120A  118A  	fcall	_clcd_putch
  2535     005C                     l2712:
  2536                           
  2537                           ;microoven.c: 155:     clcd_putch(' ',(0xC0 + 9));
  2538     005C  30C9               	movlw	201
  2539     005D  1283               	bcf	3,5	;RP0=0, select bank0
  2540     005E  1303               	bcf	3,6	;RP1=0, select bank0
  2541     005F  00A8               	movwf	clcd_putch@addr
  2542     0060  3020               	movlw	32
  2543     0061  120A  158A  2640  120A  118A  	fcall	_clcd_putch
  2544     0066                     l2714:
  2545                           
  2546                           ;microoven.c: 156:     clcd_putch(' ',(0xC0 + 10));
  2547     0066  30CA               	movlw	202
  2548     0067  1283               	bcf	3,5	;RP0=0, select bank0
  2549     0068  1303               	bcf	3,6	;RP1=0, select bank0
  2550     0069  00A8               	movwf	clcd_putch@addr
  2551     006A  3020               	movlw	32
  2552     006B  120A  158A  2640  120A  118A  	fcall	_clcd_putch
  2553     0070                     l2716:
  2554                           
  2555                           ;microoven.c: 157:     for(unsigned char wait = 50; wait--;);
  2556     0070  3032               	movlw	50
  2557     0071  1283               	bcf	3,5	;RP0=0, select bank0
  2558     0072  1303               	bcf	3,6	;RP1=0, select bank0
  2559     0073  00AD               	movwf	set_temp@wait
  2560     0074                     l2718:
  2561     0074  3001               	movlw	1
  2562     0075  02AD               	subwf	set_temp@wait,f
  2563     0076  0A2D               	incf	set_temp@wait,w
  2564     0077  1D03               	btfss	3,2
  2565     0078  287A               	goto	u2681
  2566     0079  287B               	goto	u2680
  2567     007A                     u2681:
  2568     007A  2874               	goto	l2718
  2569     007B                     u2680:
  2570     007B                     l2720:
  2571                           
  2572                           ;microoven.c: 159:     clcd_putch((char)(temp/100 ),(0xC0 + 8));
  2573     007B  30C8               	movlw	200
  2574     007C  00A8               	movwf	clcd_putch@addr
  2575     007D  3064               	movlw	100
  2576     007E  00F2               	movwf	___lwdiv@divisor
  2577     007F  3000               	movlw	0
  2578     0080  00F3               	movwf	___lwdiv@divisor+1
  2579     0081  0835               	movf	set_temp@temp+1,w
  2580     0082  00F5               	movwf	___lwdiv@dividend+1
  2581     0083  0834               	movf	set_temp@temp,w
  2582     0084  00F4               	movwf	___lwdiv@dividend
  2583     0085  120A  158A  2771  120A  118A  	fcall	___lwdiv
  2584     008A  0872               	movf	?___lwdiv,w
  2585     008B  120A  158A  2640  120A  118A  	fcall	_clcd_putch
  2586                           
  2587                           ;microoven.c: 160:     clcd_putch(((temp/10) % 10 + '0'), (0xC0 + 9));
  2588     0090  30C9               	movlw	201
  2589     0091  1283               	bcf	3,5	;RP0=0, select bank0
  2590     0092  1303               	bcf	3,6	;RP1=0, select bank0
  2591     0093  00A8               	movwf	clcd_putch@addr
  2592     0094  300A               	movlw	10
  2593     0095  00A0               	movwf	___lwmod@divisor
  2594     0096  3000               	movlw	0
  2595     0097  00A1               	movwf	___lwmod@divisor+1
  2596     0098  300A               	movlw	10
  2597     0099  00F2               	movwf	___lwdiv@divisor
  2598     009A  3000               	movlw	0
  2599     009B  00F3               	movwf	___lwdiv@divisor+1
  2600     009C  0835               	movf	set_temp@temp+1,w
  2601     009D  00F5               	movwf	___lwdiv@dividend+1
  2602     009E  0834               	movf	set_temp@temp,w
  2603     009F  00F4               	movwf	___lwdiv@dividend
  2604     00A0  120A  158A  2771  120A  118A  	fcall	___lwdiv
  2605     00A5  0873               	movf	?___lwdiv+1,w
  2606     00A6  1283               	bcf	3,5	;RP0=0, select bank0
  2607     00A7  1303               	bcf	3,6	;RP1=0, select bank0
  2608     00A8  00A3               	movwf	___lwmod@dividend+1
  2609     00A9  0872               	movf	?___lwdiv,w
  2610     00AA  00A2               	movwf	___lwmod@dividend
  2611     00AB  120A  158A  26FA  120A  118A  	fcall	___lwmod
  2612     00B0  1283               	bcf	3,5	;RP0=0, select bank0
  2613     00B1  1303               	bcf	3,6	;RP1=0, select bank0
  2614     00B2  0820               	movf	?___lwmod,w
  2615     00B3  3E30               	addlw	48
  2616     00B4  120A  158A  2640  120A  118A  	fcall	_clcd_putch
  2617                           
  2618                           ;microoven.c: 161:     clcd_putch((temp%10 + '0'), (0xC0 + 10));
  2619     00B9  30CA               	movlw	202
  2620     00BA  1283               	bcf	3,5	;RP0=0, select bank0
  2621     00BB  1303               	bcf	3,6	;RP1=0, select bank0
  2622     00BC  00A8               	movwf	clcd_putch@addr
  2623     00BD  300A               	movlw	10
  2624     00BE  00A0               	movwf	___lwmod@divisor
  2625     00BF  3000               	movlw	0
  2626     00C0  00A1               	movwf	___lwmod@divisor+1
  2627     00C1  0835               	movf	set_temp@temp+1,w
  2628     00C2  00A3               	movwf	___lwmod@dividend+1
  2629     00C3  0834               	movf	set_temp@temp,w
  2630     00C4  00A2               	movwf	___lwmod@dividend
  2631     00C5  120A  158A  26FA  120A  118A  	fcall	___lwmod
  2632     00CA  1283               	bcf	3,5	;RP0=0, select bank0
  2633     00CB  1303               	bcf	3,6	;RP1=0, select bank0
  2634     00CC  0820               	movf	?___lwmod,w
  2635     00CD  3E30               	addlw	48
  2636     00CE  120A  158A  2640  120A  118A  	fcall	_clcd_putch
  2637     00D3                     l2722:
  2638                           
  2639                           ;microoven.c: 163:      if(key != '*' && key != '#' && key != 0xFF)
  2640     00D3  302A               	movlw	42
  2641     00D4  1283               	bcf	3,5	;RP0=0, select bank0
  2642     00D5  1303               	bcf	3,6	;RP1=0, select bank0
  2643     00D6  062E               	xorwf	set_temp@key,w
  2644     00D7  1903               	btfsc	3,2
  2645     00D8  28DA               	goto	u2691
  2646     00D9  28DB               	goto	u2690
  2647     00DA                     u2691:
  2648     00DA  2906               	goto	l2734
  2649     00DB                     u2690:
  2650     00DB                     l2724:
  2651     00DB  3023               	movlw	35
  2652     00DC  062E               	xorwf	set_temp@key,w
  2653     00DD  1903               	btfsc	3,2
  2654     00DE  28E0               	goto	u2701
  2655     00DF  28E1               	goto	u2700
  2656     00E0                     u2701:
  2657     00E0  2906               	goto	l2734
  2658     00E1                     u2700:
  2659     00E1                     l2726:
  2660     00E1  0A2E               	incf	set_temp@key,w
  2661     00E2  1903               	btfsc	3,2
  2662     00E3  28E5               	goto	u2711
  2663     00E4  28E6               	goto	u2710
  2664     00E5                     u2711:
  2665     00E5  2906               	goto	l2734
  2666     00E6                     u2710:
  2667     00E6                     l2728:
  2668                           
  2669                           ;microoven.c: 164:     {;microoven.c: 165:         if(key_count < 3)
  2670     00E6  3003               	movlw	3
  2671     00E7  0236               	subwf	set_temp@key_count,w
  2672     00E8  1803               	skipnc
  2673     00E9  28EB               	goto	u2721
  2674     00EA  28EC               	goto	u2720
  2675     00EB                     u2721:
  2676     00EB  29BC               	goto	l317
  2677     00EC                     u2720:
  2678     00EC                     l2730:
  2679                           
  2680                           ;microoven.c: 166:         {;microoven.c: 167:             temp = temp * 10 + key;
  2681     00EC  0835               	movf	set_temp@temp+1,w
  2682     00ED  00F3               	movwf	___wmul@multiplier+1
  2683     00EE  0834               	movf	set_temp@temp,w
  2684     00EF  00F2               	movwf	___wmul@multiplier
  2685     00F0  300A               	movlw	10
  2686     00F1  00F4               	movwf	___wmul@multiplicand
  2687     00F2  3000               	movlw	0
  2688     00F3  00F5               	movwf	___wmul@multiplicand+1
  2689     00F4  120A  158A  269F  120A  118A  	fcall	___wmul
  2690     00F9  1283               	bcf	3,5	;RP0=0, select bank0
  2691     00FA  1303               	bcf	3,6	;RP1=0, select bank0
  2692     00FB  082E               	movf	set_temp@key,w
  2693     00FC  0772               	addwf	?___wmul,w
  2694     00FD  00B4               	movwf	set_temp@temp
  2695     00FE  3000               	movlw	0
  2696     00FF  1803               	skipnc
  2697     0100  3001               	movlw	1
  2698     0101  0773               	addwf	?___wmul+1,w
  2699     0102  00B5               	movwf	set_temp@temp+1
  2700     0103                     l2732:
  2701                           
  2702                           ;microoven.c: 168:             key_count++;
  2703     0103  3001               	movlw	1
  2704     0104  07B6               	addwf	set_temp@key_count,f
  2705     0105  29BC               	goto	l317
  2706     0106                     l2734:
  2707     0106  302A               	movlw	42
  2708     0107  062E               	xorwf	set_temp@key,w
  2709     0108  1D03               	btfss	3,2
  2710     0109  290B               	goto	u2731
  2711     010A  290C               	goto	u2730
  2712     010B                     u2731:
  2713     010B  2910               	goto	l2738
  2714     010C                     u2730:
  2715     010C                     l2736:
  2716                           
  2717                           ;microoven.c: 172:     {;microoven.c: 173:         temp = 0;
  2718     010C  01B4               	clrf	set_temp@temp
  2719     010D  01B5               	clrf	set_temp@temp+1
  2720                           
  2721                           ;microoven.c: 174:         key_count = 0;
  2722     010E  01B6               	clrf	set_temp@key_count
  2723                           
  2724                           ;microoven.c: 175:     }
  2725     010F  29BC               	goto	l317
  2726     0110                     l2738:
  2727     0110  3023               	movlw	35
  2728     0111  062E               	xorwf	set_temp@key,w
  2729     0112  1D03               	btfss	3,2
  2730     0113  2915               	goto	u2741
  2731     0114  2916               	goto	u2740
  2732     0115                     u2741:
  2733     0115  29BC               	goto	l317
  2734     0116                     u2740:
  2735     0116                     l2740:
  2736                           
  2737                           ;microoven.c: 177:     {;microoven.c: 178:         if(temp > 180)
  2738     0116  3000               	movlw	0
  2739     0117  0235               	subwf	set_temp@temp+1,w
  2740     0118  30B5               	movlw	181
  2741     0119  1903               	skipnz
  2742     011A  0234               	subwf	set_temp@temp,w
  2743     011B  1C03               	skipc
  2744     011C  291E               	goto	u2751
  2745     011D  291F               	goto	u2750
  2746     011E                     u2751:
  2747     011E  2923               	goto	l2744
  2748     011F                     u2750:
  2749     011F                     l2742:
  2750                           
  2751                           ;microoven.c: 179:         {;microoven.c: 180:             temp = 180;
  2752     011F  30B4               	movlw	180
  2753     0120  00B4               	movwf	set_temp@temp
  2754     0121  3000               	movlw	0
  2755     0122  00B5               	movwf	set_temp@temp+1
  2756     0123                     l2744:
  2757                           
  2758                           ;microoven.c: 182:         clear_screen();
  2759     0123  120A  158A  2608  120A  118A  	fcall	_clear_screen
  2760     0128                     l2746:
  2761                           
  2762                           ;microoven.c: 183:         clcd_print("Pre-Heating", (0x80 + 2));
  2763     0128  307B               	movlw	(low ((STR_20-__stringbase)| (0+32768)))& (0+255)
  2764     0129  00F6               	movwf	clcd_print@str
  2765     012A  3082               	movlw	130
  2766     012B  00F7               	movwf	clcd_print@addr
  2767     012C  120A  158A  2655  120A  118A  	fcall	_clcd_print
  2768     0131                     l2748:
  2769                           
  2770                           ;microoven.c: 184:         clcd_print("Time Rem :", (0x90 + 0));
  2771     0131  3093               	movlw	(low ((STR_21-__stringbase)| (0+32768)))& (0+255)
  2772     0132  00F6               	movwf	clcd_print@str
  2773     0133  3090               	movlw	144
  2774     0134  00F7               	movwf	clcd_print@addr
  2775     0135  120A  158A  2655  120A  118A  	fcall	_clcd_print
  2776     013A                     l2750:
  2777                           
  2778                           ;microoven.c: 185:         clcd_print("sec:", (0x90 + 0));
  2779     013A  30E3               	movlw	(low ((STR_22-__stringbase)| (0+32768)))& (0+255)
  2780     013B  00F6               	movwf	clcd_print@str
  2781     013C  3090               	movlw	144
  2782     013D  00F7               	movwf	clcd_print@addr
  2783     013E  120A  158A  2655  120A  118A  	fcall	_clcd_print
  2784     0143                     l2752:
  2785                           
  2786                           ;microoven.c: 186:         pre_heat_time = 60;
  2787     0143  303C               	movlw	60
  2788     0144  1283               	bcf	3,5	;RP0=0, select bank0
  2789     0145  1303               	bcf	3,6	;RP1=0, select bank0
  2790     0146  00B9               	movwf	_pre_heat_time
  2791     0147                     l2754:
  2792                           
  2793                           ;microoven.c: 187:         TMR2ON = 1;
  2794     0147  1512               	bsf	18,2	;volatile
  2795                           
  2796                           ;microoven.c: 189:         while(pre_heat_time != 0)
  2797     0148  29AB               	goto	l2758
  2798     0149                     l2756:
  2799                           
  2800                           ;microoven.c: 190:         {;microoven.c: 191:             clcd_putch((pre_heat_time/100
      +                           + '0'), (0x90 + 10));
  2801     0149  309A               	movlw	154
  2802     014A  00A8               	movwf	clcd_putch@addr
  2803     014B  3064               	movlw	100
  2804     014C  00F2               	movwf	___awdiv@divisor
  2805     014D  3000               	movlw	0
  2806     014E  00F3               	movwf	___awdiv@divisor+1
  2807     014F  0839               	movf	_pre_heat_time,w
  2808     0150  00AB               	movwf	??_set_temp
  2809     0151  01AC               	clrf	??_set_temp+1
  2810     0152  082B               	movf	??_set_temp,w
  2811     0153  00F4               	movwf	___awdiv@dividend
  2812     0154  082C               	movf	??_set_temp+1,w
  2813     0155  00F5               	movwf	___awdiv@dividend+1
  2814     0156  120A  118A  277D  120A  118A  	fcall	___awdiv
  2815     015B  0872               	movf	?___awdiv,w
  2816     015C  3E30               	addlw	48
  2817     015D  120A  158A  2640  120A  118A  	fcall	_clcd_putch
  2818                           
  2819                           ;microoven.c: 192:             clcd_putch(((pre_heat_time/10) % 10 + '0'), (0x90 + 11));
  2820     0162  309B               	movlw	155
  2821     0163  1283               	bcf	3,5	;RP0=0, select bank0
  2822     0164  1303               	bcf	3,6	;RP1=0, select bank0
  2823     0165  00A8               	movwf	clcd_putch@addr
  2824     0166  300A               	movlw	10
  2825     0167  00A4               	movwf	___awmod@divisor
  2826     0168  3000               	movlw	0
  2827     0169  00A5               	movwf	___awmod@divisor+1
  2828     016A  300A               	movlw	10
  2829     016B  00F2               	movwf	___awdiv@divisor
  2830     016C  3000               	movlw	0
  2831     016D  00F3               	movwf	___awdiv@divisor+1
  2832     016E  0839               	movf	_pre_heat_time,w
  2833     016F  00AB               	movwf	??_set_temp
  2834     0170  01AC               	clrf	??_set_temp+1
  2835     0171  082B               	movf	??_set_temp,w
  2836     0172  00F4               	movwf	___awdiv@dividend
  2837     0173  082C               	movf	??_set_temp+1,w
  2838     0174  00F5               	movwf	___awdiv@dividend+1
  2839     0175  120A  118A  277D  120A  118A  	fcall	___awdiv
  2840     017A  0873               	movf	?___awdiv+1,w
  2841     017B  1283               	bcf	3,5	;RP0=0, select bank0
  2842     017C  1303               	bcf	3,6	;RP1=0, select bank0
  2843     017D  00A7               	movwf	___awmod@dividend+1
  2844     017E  0872               	movf	?___awdiv,w
  2845     017F  00A6               	movwf	___awmod@dividend
  2846     0180  120A  118A  2483  120A  118A  	fcall	___awmod
  2847     0185  1283               	bcf	3,5	;RP0=0, select bank0
  2848     0186  1303               	bcf	3,6	;RP1=0, select bank0
  2849     0187  0824               	movf	?___awmod,w
  2850     0188  3E30               	addlw	48
  2851     0189  120A  158A  2640  120A  118A  	fcall	_clcd_putch
  2852                           
  2853                           ;microoven.c: 193:             clcd_putch((pre_heat_time%10+ '0'), (0x90 + 12));
  2854     018E  309C               	movlw	156
  2855     018F  1283               	bcf	3,5	;RP0=0, select bank0
  2856     0190  1303               	bcf	3,6	;RP1=0, select bank0
  2857     0191  00A8               	movwf	clcd_putch@addr
  2858     0192  300A               	movlw	10
  2859     0193  00A4               	movwf	___awmod@divisor
  2860     0194  3000               	movlw	0
  2861     0195  00A5               	movwf	___awmod@divisor+1
  2862     0196  0839               	movf	_pre_heat_time,w
  2863     0197  00AB               	movwf	??_set_temp
  2864     0198  01AC               	clrf	??_set_temp+1
  2865     0199  082B               	movf	??_set_temp,w
  2866     019A  00A6               	movwf	___awmod@dividend
  2867     019B  082C               	movf	??_set_temp+1,w
  2868     019C  00A7               	movwf	___awmod@dividend+1
  2869     019D  120A  118A  2483  120A  118A  	fcall	___awmod
  2870     01A2  1283               	bcf	3,5	;RP0=0, select bank0
  2871     01A3  1303               	bcf	3,6	;RP1=0, select bank0
  2872     01A4  0824               	movf	?___awmod,w
  2873     01A5  3E30               	addlw	48
  2874     01A6  120A  158A  2640  120A  118A  	fcall	_clcd_putch
  2875     01AB                     l2758:
  2876                           
  2877                           ;microoven.c: 189:         while(pre_heat_time != 0)
  2878     01AB  1283               	bcf	3,5	;RP0=0, select bank0
  2879     01AC  1303               	bcf	3,6	;RP1=0, select bank0
  2880     01AD  0839               	movf	_pre_heat_time,w
  2881     01AE  1D03               	btfss	3,2
  2882     01AF  29B1               	goto	u2761
  2883     01B0  29B2               	goto	u2760
  2884     01B1                     u2761:
  2885     01B1  2949               	goto	l2756
  2886     01B2                     u2760:
  2887     01B2                     l316:
  2888                           
  2889                           ;microoven.c: 196:         TMR2ON = 0;
  2890     01B2  1112               	bcf	18,2	;volatile
  2891     01B3                     l2760:
  2892                           
  2893                           ;microoven.c: 197:         clear_screen();
  2894     01B3  120A  158A  2608  120A  118A  	fcall	_clear_screen
  2895     01B8                     l2762:
  2896                           
  2897                           ;microoven.c: 198:         operational_flag = 0x11;
  2898     01B8  3011               	movlw	17
  2899     01B9  1283               	bcf	3,5	;RP0=0, select bank0
  2900     01BA  1303               	bcf	3,6	;RP1=0, select bank0
  2901     01BB  00BD               	movwf	_operational_flag
  2902     01BC                     l317:
  2903     01BC  0008               	return
  2904     01BD                     __end_of_set_temp:
  2905                           
  2906                           	psect	text5
  2907     0E08                     __ptext5:	
  2908 ;; *************** function _clear_screen *****************
  2909 ;; Defined at:
  2910 ;;		line 26 in file "microoven.c"
  2911 ;; Parameters:    Size  Location     Type
  2912 ;;		None
  2913 ;; Auto vars:     Size  Location     Type
  2914 ;;		None
  2915 ;; Return value:  Size  Location     Type
  2916 ;;                  1    wreg      void 
  2917 ;; Registers used:
  2918 ;;		wreg, status,2, status,0, pclath, cstack
  2919 ;; Tracked objects:
  2920 ;;		On entry : 0/0
  2921 ;;		On exit  : 0/0
  2922 ;;		Unchanged: 0/0
  2923 ;; Data sizes:     COMMON   BANK0   BANK1   BANK3   BANK2
  2924 ;;      Params:         0       0       0       0       0
  2925 ;;      Locals:         0       0       0       0       0
  2926 ;;      Temps:          2       0       0       0       0
  2927 ;;      Totals:         2       0       0       0       0
  2928 ;;Total ram usage:        2 bytes
  2929 ;; Hardware stack levels used: 1
  2930 ;; Hardware stack levels required when called: 1
  2931 ;; This function calls:
  2932 ;;		_clcd_write
  2933 ;; This function is called by:
  2934 ;;		_main
  2935 ;;		_set_time
  2936 ;;		_time_display
  2937 ;;		_set_temp
  2938 ;; This function uses a non-reentrant model
  2939 ;;
  2940                           
  2941     0E08                     _clear_screen:	
  2942                           ;psect for function _clear_screen
  2943                           
  2944     0E08                     l1574:	
  2945                           ;incstack = 0
  2946                           ; Regs used in _clear_screen: [wreg+status,2+status,0+pclath+cstack]
  2947                           
  2948                           
  2949                           ;microoven.c: 28:     clcd_write(0x01, 0);
  2950     0E08  01F2               	clrf	clcd_write@mode
  2951     0E09  3001               	movlw	1
  2952     0E0A  120A  158A  26C4  120A  158A  	fcall	_clcd_write
  2953     0E0F                     l1576:
  2954                           
  2955                           ;microoven.c: 29:     _delay((unsigned long)((500)*(20000000/4000000.0)));
  2956     0E0F  3004               	movlw	4
  2957     0E10  00F7               	movwf	??_clear_screen+1
  2958     0E11  303D               	movlw	61
  2959     0E12  00F6               	movwf	??_clear_screen
  2960     0E13                     u2927:
  2961     0E13  0BF6               	decfsz	??_clear_screen,f
  2962     0E14  2E13               	goto	u2927
  2963     0E15  0BF7               	decfsz	??_clear_screen+1,f
  2964     0E16  2E13               	goto	u2927
  2965     0E17  2E18               	nop2
  2966     0E18                     l266:
  2967     0E18  0008               	return
  2968     0E19                     __end_of_clear_screen:
  2969                           
  2970                           	psect	text6
  2971     0E9F                     __ptext6:	
  2972 ;; *************** function ___wmul *****************
  2973 ;; Defined at:
  2974 ;;		line 15 in file "C:\Program Files\Microchip\xc8\v3.10\pic\sources\c99\common\Umul16.c"
  2975 ;; Parameters:    Size  Location     Type
  2976 ;;  multiplier      2    2[COMMON] unsigned int 
  2977 ;;  multiplicand    2    4[COMMON] unsigned int 
  2978 ;; Auto vars:     Size  Location     Type
  2979 ;;  product         2    6[COMMON] unsigned int 
  2980 ;; Return value:  Size  Location     Type
  2981 ;;                  2    2[COMMON] unsigned int 
  2982 ;; Registers used:
  2983 ;;		wreg, status,2, status,0
  2984 ;; Tracked objects:
  2985 ;;		On entry : 0/0
  2986 ;;		On exit  : 0/0
  2987 ;;		Unchanged: 0/0
  2988 ;; Data sizes:     COMMON   BANK0   BANK1   BANK3   BANK2
  2989 ;;      Params:         4       0       0       0       0
  2990 ;;      Locals:         2       0       0       0       0
  2991 ;;      Temps:          0       0       0       0       0
  2992 ;;      Totals:         6       0       0       0       0
  2993 ;;Total ram usage:        6 bytes
  2994 ;; Hardware stack levels used: 1
  2995 ;; Hardware stack levels required when called: 1
  2996 ;; This function calls:
  2997 ;;		Nothing
  2998 ;; This function is called by:
  2999 ;;		_set_temp
  3000 ;; This function uses a non-reentrant model
  3001 ;;
  3002                           
  3003     0E9F                     ___wmul:	
  3004                           ;psect for function ___wmul
  3005                           
  3006     0E9F                     l1664:	
  3007                           ;incstack = 0
  3008                           ; Regs used in ___wmul: [wreg+status,2+status,0]
  3009                           
  3010     0E9F  01F6               	clrf	___wmul@product
  3011     0EA0  01F7               	clrf	___wmul@product+1
  3012     0EA1                     l1666:
  3013     0EA1  1C72               	btfss	___wmul@multiplier,0
  3014     0EA2  2EA4               	goto	u1071
  3015     0EA3  2EA5               	goto	u1070
  3016     0EA4                     u1071:
  3017     0EA4  2EAB               	goto	l406
  3018     0EA5                     u1070:
  3019     0EA5                     l1668:
  3020     0EA5  0874               	movf	___wmul@multiplicand,w
  3021     0EA6  07F6               	addwf	___wmul@product,f
  3022     0EA7  1803               	skipnc
  3023     0EA8  0AF7               	incf	___wmul@product+1,f
  3024     0EA9  0875               	movf	___wmul@multiplicand+1,w
  3025     0EAA  07F7               	addwf	___wmul@product+1,f
  3026     0EAB                     l406:
  3027     0EAB  3001               	movlw	1
  3028     0EAC                     u1085:
  3029     0EAC  1003               	clrc
  3030     0EAD  0DF4               	rlf	___wmul@multiplicand,f
  3031     0EAE  0DF5               	rlf	___wmul@multiplicand+1,f
  3032     0EAF  3EFF               	addlw	-1
  3033     0EB0  1D03               	skipz
  3034     0EB1  2EAC               	goto	u1085
  3035     0EB2                     l1670:
  3036     0EB2  3001               	movlw	1
  3037     0EB3                     u1095:
  3038     0EB3  1003               	clrc
  3039     0EB4  0CF3               	rrf	___wmul@multiplier+1,f
  3040     0EB5  0CF2               	rrf	___wmul@multiplier,f
  3041     0EB6  3EFF               	addlw	-1
  3042     0EB7  1D03               	skipz
  3043     0EB8  2EB3               	goto	u1095
  3044     0EB9                     l1672:
  3045     0EB9  0872               	movf	___wmul@multiplier,w
  3046     0EBA  0473               	iorwf	___wmul@multiplier+1,w
  3047     0EBB  1D03               	btfss	3,2
  3048     0EBC  2EBE               	goto	u1101
  3049     0EBD  2EBF               	goto	u1100
  3050     0EBE                     u1101:
  3051     0EBE  2EA1               	goto	l1666
  3052     0EBF                     u1100:
  3053     0EBF                     l1674:
  3054     0EBF  0877               	movf	___wmul@product+1,w
  3055     0EC0  00F3               	movwf	?___wmul+1
  3056     0EC1  0876               	movf	___wmul@product,w
  3057     0EC2  00F2               	movwf	?___wmul
  3058     0EC3                     l408:
  3059     0EC3  0008               	return
  3060     0EC4                     __end_of___wmul:
  3061                           
  3062                           	psect	text7
  3063     0EFA                     __ptext7:	
  3064 ;; *************** function ___lwmod *****************
  3065 ;; Defined at:
  3066 ;;		line 5 in file "C:\Program Files\Microchip\xc8\v3.10\pic\sources\c99\common\lwmod.c"
  3067 ;; Parameters:    Size  Location     Type
  3068 ;;  divisor         2    0[BANK0 ] unsigned int 
  3069 ;;  dividend        2    2[BANK0 ] unsigned int 
  3070 ;; Auto vars:     Size  Location     Type
  3071 ;;  counter         1    4[BANK0 ] unsigned char 
  3072 ;; Return value:  Size  Location     Type
  3073 ;;                  2    0[BANK0 ] unsigned int 
  3074 ;; Registers used:
  3075 ;;		wreg, status,2, status,0
  3076 ;; Tracked objects:
  3077 ;;		On entry : 0/0
  3078 ;;		On exit  : 0/0
  3079 ;;		Unchanged: 0/0
  3080 ;; Data sizes:     COMMON   BANK0   BANK1   BANK3   BANK2
  3081 ;;      Params:         0       4       0       0       0
  3082 ;;      Locals:         0       1       0       0       0
  3083 ;;      Temps:          0       0       0       0       0
  3084 ;;      Totals:         0       5       0       0       0
  3085 ;;Total ram usage:        5 bytes
  3086 ;; Hardware stack levels used: 1
  3087 ;; Hardware stack levels required when called: 1
  3088 ;; This function calls:
  3089 ;;		Nothing
  3090 ;; This function is called by:
  3091 ;;		_set_temp
  3092 ;; This function uses a non-reentrant model
  3093 ;;
  3094                           
  3095     0EFA                     ___lwmod:	
  3096                           ;psect for function ___lwmod
  3097                           
  3098     0EFA                     l2254:	
  3099                           ;incstack = 0
  3100                           ; Regs used in ___lwmod: [wreg+status,2+status,0]
  3101                           
  3102     0EFA  1283               	bcf	3,5	;RP0=0, select bank0
  3103     0EFB  1303               	bcf	3,6	;RP1=0, select bank0
  3104     0EFC  0820               	movf	___lwmod@divisor,w
  3105     0EFD  0421               	iorwf	___lwmod@divisor+1,w
  3106     0EFE  1903               	btfsc	3,2
  3107     0EFF  2F01               	goto	u2021
  3108     0F00  2F02               	goto	u2020
  3109     0F01                     u2021:
  3110     0F01  2F2F               	goto	l2272
  3111     0F02                     u2020:
  3112     0F02                     l2256:
  3113     0F02  3001               	movlw	1
  3114     0F03  00A4               	movwf	___lwmod@counter
  3115     0F04  2F0E               	goto	l2262
  3116     0F05                     l2258:
  3117     0F05  3001               	movlw	1
  3118     0F06                     u2035:
  3119     0F06  1003               	clrc
  3120     0F07  0DA0               	rlf	___lwmod@divisor,f
  3121     0F08  0DA1               	rlf	___lwmod@divisor+1,f
  3122     0F09  3EFF               	addlw	-1
  3123     0F0A  1D03               	skipz
  3124     0F0B  2F06               	goto	u2035
  3125     0F0C                     l2260:
  3126     0F0C  3001               	movlw	1
  3127     0F0D  07A4               	addwf	___lwmod@counter,f
  3128     0F0E                     l2262:
  3129     0F0E  1FA1               	btfss	___lwmod@divisor+1,7
  3130     0F0F  2F11               	goto	u2041
  3131     0F10  2F12               	goto	u2040
  3132     0F11                     u2041:
  3133     0F11  2F05               	goto	l2258
  3134     0F12                     u2040:
  3135     0F12                     l2264:
  3136     0F12  0821               	movf	___lwmod@divisor+1,w
  3137     0F13  0223               	subwf	___lwmod@dividend+1,w
  3138     0F14  1D03               	skipz
  3139     0F15  2F18               	goto	u2055
  3140     0F16  0820               	movf	___lwmod@divisor,w
  3141     0F17  0222               	subwf	___lwmod@dividend,w
  3142     0F18                     u2055:
  3143     0F18  1C03               	skipc
  3144     0F19  2F1B               	goto	u2051
  3145     0F1A  2F1C               	goto	u2050
  3146     0F1B                     u2051:
  3147     0F1B  2F22               	goto	l2268
  3148     0F1C                     u2050:
  3149     0F1C                     l2266:
  3150     0F1C  0820               	movf	___lwmod@divisor,w
  3151     0F1D  02A2               	subwf	___lwmod@dividend,f
  3152     0F1E  0821               	movf	___lwmod@divisor+1,w
  3153     0F1F  1C03               	skipc
  3154     0F20  03A3               	decf	___lwmod@dividend+1,f
  3155     0F21  02A3               	subwf	___lwmod@dividend+1,f
  3156     0F22                     l2268:
  3157     0F22  3001               	movlw	1
  3158     0F23                     u2065:
  3159     0F23  1003               	clrc
  3160     0F24  0CA1               	rrf	___lwmod@divisor+1,f
  3161     0F25  0CA0               	rrf	___lwmod@divisor,f
  3162     0F26  3EFF               	addlw	-1
  3163     0F27  1D03               	skipz
  3164     0F28  2F23               	goto	u2065
  3165     0F29                     l2270:
  3166     0F29  3001               	movlw	1
  3167     0F2A  02A4               	subwf	___lwmod@counter,f
  3168     0F2B  1D03               	btfss	3,2
  3169     0F2C  2F2E               	goto	u2071
  3170     0F2D  2F2F               	goto	u2070
  3171     0F2E                     u2071:
  3172     0F2E  2F12               	goto	l2264
  3173     0F2F                     u2070:
  3174     0F2F                     l2272:
  3175     0F2F  0823               	movf	___lwmod@dividend+1,w
  3176     0F30  00A1               	movwf	?___lwmod+1
  3177     0F31  0822               	movf	___lwmod@dividend,w
  3178     0F32  00A0               	movwf	?___lwmod
  3179     0F33                     l696:
  3180     0F33  0008               	return
  3181     0F34                     __end_of___lwmod:
  3182                           
  3183                           	psect	text8
  3184     0F71                     __ptext8:	
  3185 ;; *************** function ___lwdiv *****************
  3186 ;; Defined at:
  3187 ;;		line 5 in file "C:\Program Files\Microchip\xc8\v3.10\pic\sources\c99\common\lwdiv.c"
  3188 ;; Parameters:    Size  Location     Type
  3189 ;;  divisor         2    2[COMMON] unsigned int 
  3190 ;;  dividend        2    4[COMMON] unsigned int 
  3191 ;; Auto vars:     Size  Location     Type
  3192 ;;  quotient        2    6[COMMON] unsigned int 
  3193 ;;  counter         1    8[COMMON] unsigned char 
  3194 ;; Return value:  Size  Location     Type
  3195 ;;                  2    2[COMMON] unsigned int 
  3196 ;; Registers used:
  3197 ;;		wreg, status,2, status,0
  3198 ;; Tracked objects:
  3199 ;;		On entry : 0/0
  3200 ;;		On exit  : 0/0
  3201 ;;		Unchanged: 0/0
  3202 ;; Data sizes:     COMMON   BANK0   BANK1   BANK3   BANK2
  3203 ;;      Params:         4       0       0       0       0
  3204 ;;      Locals:         3       0       0       0       0
  3205 ;;      Temps:          0       0       0       0       0
  3206 ;;      Totals:         7       0       0       0       0
  3207 ;;Total ram usage:        7 bytes
  3208 ;; Hardware stack levels used: 1
  3209 ;; Hardware stack levels required when called: 1
  3210 ;; This function calls:
  3211 ;;		Nothing
  3212 ;; This function is called by:
  3213 ;;		_set_temp
  3214 ;; This function uses a non-reentrant model
  3215 ;;
  3216                           
  3217     0F71                     ___lwdiv:	
  3218                           ;psect for function ___lwdiv
  3219                           
  3220     0F71                     l1716:	
  3221                           ;incstack = 0
  3222                           ; Regs used in ___lwdiv: [wreg+status,2+status,0]
  3223                           
  3224     0F71  01F6               	clrf	___lwdiv@quotient
  3225     0F72  01F7               	clrf	___lwdiv@quotient+1
  3226     0F73                     l1718:
  3227     0F73  0872               	movf	___lwdiv@divisor,w
  3228     0F74  0473               	iorwf	___lwdiv@divisor+1,w
  3229     0F75  1903               	btfsc	3,2
  3230     0F76  2F78               	goto	u1201
  3231     0F77  2F79               	goto	u1200
  3232     0F78                     u1201:
  3233     0F78  2FAE               	goto	l1738
  3234     0F79                     u1200:
  3235     0F79                     l1720:
  3236     0F79  3001               	movlw	1
  3237     0F7A  00F8               	movwf	___lwdiv@counter
  3238     0F7B  2F85               	goto	l1726
  3239     0F7C                     l1722:
  3240     0F7C  3001               	movlw	1
  3241     0F7D                     u1215:
  3242     0F7D  1003               	clrc
  3243     0F7E  0DF2               	rlf	___lwdiv@divisor,f
  3244     0F7F  0DF3               	rlf	___lwdiv@divisor+1,f
  3245     0F80  3EFF               	addlw	-1
  3246     0F81  1D03               	skipz
  3247     0F82  2F7D               	goto	u1215
  3248     0F83                     l1724:
  3249     0F83  3001               	movlw	1
  3250     0F84  07F8               	addwf	___lwdiv@counter,f
  3251     0F85                     l1726:
  3252     0F85  1FF3               	btfss	___lwdiv@divisor+1,7
  3253     0F86  2F88               	goto	u1221
  3254     0F87  2F89               	goto	u1220
  3255     0F88                     u1221:
  3256     0F88  2F7C               	goto	l1722
  3257     0F89                     u1220:
  3258     0F89                     l1728:
  3259     0F89  3001               	movlw	1
  3260     0F8A                     u1235:
  3261     0F8A  1003               	clrc
  3262     0F8B  0DF6               	rlf	___lwdiv@quotient,f
  3263     0F8C  0DF7               	rlf	___lwdiv@quotient+1,f
  3264     0F8D  3EFF               	addlw	-1
  3265     0F8E  1D03               	skipz
  3266     0F8F  2F8A               	goto	u1235
  3267     0F90  0873               	movf	___lwdiv@divisor+1,w
  3268     0F91  0275               	subwf	___lwdiv@dividend+1,w
  3269     0F92  1D03               	skipz
  3270     0F93  2F96               	goto	u1245
  3271     0F94  0872               	movf	___lwdiv@divisor,w
  3272     0F95  0274               	subwf	___lwdiv@dividend,w
  3273     0F96                     u1245:
  3274     0F96  1C03               	skipc
  3275     0F97  2F99               	goto	u1241
  3276     0F98  2F9A               	goto	u1240
  3277     0F99                     u1241:
  3278     0F99  2FA1               	goto	l1734
  3279     0F9A                     u1240:
  3280     0F9A                     l1730:
  3281     0F9A  0872               	movf	___lwdiv@divisor,w
  3282     0F9B  02F4               	subwf	___lwdiv@dividend,f
  3283     0F9C  0873               	movf	___lwdiv@divisor+1,w
  3284     0F9D  1C03               	skipc
  3285     0F9E  03F5               	decf	___lwdiv@dividend+1,f
  3286     0F9F  02F5               	subwf	___lwdiv@dividend+1,f
  3287     0FA0                     l1732:
  3288     0FA0  1476               	bsf	___lwdiv@quotient,0
  3289     0FA1                     l1734:
  3290     0FA1  3001               	movlw	1
  3291     0FA2                     u1255:
  3292     0FA2  1003               	clrc
  3293     0FA3  0CF3               	rrf	___lwdiv@divisor+1,f
  3294     0FA4  0CF2               	rrf	___lwdiv@divisor,f
  3295     0FA5  3EFF               	addlw	-1
  3296     0FA6  1D03               	skipz
  3297     0FA7  2FA2               	goto	u1255
  3298     0FA8                     l1736:
  3299     0FA8  3001               	movlw	1
  3300     0FA9  02F8               	subwf	___lwdiv@counter,f
  3301     0FAA  1D03               	btfss	3,2
  3302     0FAB  2FAD               	goto	u1261
  3303     0FAC  2FAE               	goto	u1260
  3304     0FAD                     u1261:
  3305     0FAD  2F89               	goto	l1728
  3306     0FAE                     u1260:
  3307     0FAE                     l1738:
  3308     0FAE  0877               	movf	___lwdiv@quotient+1,w
  3309     0FAF  00F3               	movwf	?___lwdiv+1
  3310     0FB0  0876               	movf	___lwdiv@quotient,w
  3311     0FB1  00F2               	movwf	?___lwdiv
  3312     0FB2                     l686:
  3313     0FB2  0008               	return
  3314     0FB3                     __end_of___lwdiv:
  3315                           
  3316                           	psect	text9
  3317     0483                     __ptext9:	
  3318 ;; *************** function ___awmod *****************
  3319 ;; Defined at:
  3320 ;;		line 5 in file "C:\Program Files\Microchip\xc8\v3.10\pic\sources\c99\common\awmod.c"
  3321 ;; Parameters:    Size  Location     Type
  3322 ;;  divisor         2    4[BANK0 ] int 
  3323 ;;  dividend        2    6[BANK0 ] int 
  3324 ;; Auto vars:     Size  Location     Type
  3325 ;;  sign            1    7[COMMON] unsigned char 
  3326 ;;  counter         1    6[COMMON] unsigned char 
  3327 ;; Return value:  Size  Location     Type
  3328 ;;                  2    4[BANK0 ] int 
  3329 ;; Registers used:
  3330 ;;		wreg, status,2, status,0
  3331 ;; Tracked objects:
  3332 ;;		On entry : 0/0
  3333 ;;		On exit  : 0/0
  3334 ;;		Unchanged: 0/0
  3335 ;; Data sizes:     COMMON   BANK0   BANK1   BANK3   BANK2
  3336 ;;      Params:         0       4       0       0       0
  3337 ;;      Locals:         2       0       0       0       0
  3338 ;;      Temps:          0       0       0       0       0
  3339 ;;      Totals:         2       4       0       0       0
  3340 ;;Total ram usage:        6 bytes
  3341 ;; Hardware stack levels used: 1
  3342 ;; Hardware stack levels required when called: 1
  3343 ;; This function calls:
  3344 ;;		Nothing
  3345 ;; This function is called by:
  3346 ;;		_set_temp
  3347 ;;		_set_time
  3348 ;;		_time_display
  3349 ;; This function uses a non-reentrant model
  3350 ;;
  3351                           
  3352     0483                     ___awmod:	
  3353                           ;psect for function ___awmod
  3354                           
  3355     0483                     l2216:	
  3356                           ;incstack = 0
  3357                           ; Regs used in ___awmod: [wreg+status,2+status,0]
  3358                           
  3359     0483  01F7               	clrf	___awmod@sign
  3360     0484                     l2218:
  3361     0484  1283               	bcf	3,5	;RP0=0, select bank0
  3362     0485  1303               	bcf	3,6	;RP1=0, select bank0
  3363     0486  1FA7               	btfss	___awmod@dividend+1,7
  3364     0487  2C89               	goto	u1931
  3365     0488  2C8A               	goto	u1930
  3366     0489                     u1931:
  3367     0489  2C91               	goto	l2224
  3368     048A                     u1930:
  3369     048A                     l2220:
  3370     048A  09A6               	comf	___awmod@dividend,f
  3371     048B  09A7               	comf	___awmod@dividend+1,f
  3372     048C  0AA6               	incf	___awmod@dividend,f
  3373     048D  1903               	skipnz
  3374     048E  0AA7               	incf	___awmod@dividend+1,f
  3375     048F                     l2222:
  3376     048F  3001               	movlw	1
  3377     0490  00F7               	movwf	___awmod@sign
  3378     0491                     l2224:
  3379     0491  1FA5               	btfss	___awmod@divisor+1,7
  3380     0492  2C94               	goto	u1941
  3381     0493  2C95               	goto	u1940
  3382     0494                     u1941:
  3383     0494  2C9A               	goto	l2228
  3384     0495                     u1940:
  3385     0495                     l2226:
  3386     0495  09A4               	comf	___awmod@divisor,f
  3387     0496  09A5               	comf	___awmod@divisor+1,f
  3388     0497  0AA4               	incf	___awmod@divisor,f
  3389     0498  1903               	skipnz
  3390     0499  0AA5               	incf	___awmod@divisor+1,f
  3391     049A                     l2228:
  3392     049A  0824               	movf	___awmod@divisor,w
  3393     049B  0425               	iorwf	___awmod@divisor+1,w
  3394     049C  1903               	btfsc	3,2
  3395     049D  2C9F               	goto	u1951
  3396     049E  2CA0               	goto	u1950
  3397     049F                     u1951:
  3398     049F  2CCD               	goto	l2246
  3399     04A0                     u1950:
  3400     04A0                     l2230:
  3401     04A0  3001               	movlw	1
  3402     04A1  00F6               	movwf	___awmod@counter
  3403     04A2  2CAC               	goto	l2236
  3404     04A3                     l2232:
  3405     04A3  3001               	movlw	1
  3406     04A4                     u1965:
  3407     04A4  1003               	clrc
  3408     04A5  0DA4               	rlf	___awmod@divisor,f
  3409     04A6  0DA5               	rlf	___awmod@divisor+1,f
  3410     04A7  3EFF               	addlw	-1
  3411     04A8  1D03               	skipz
  3412     04A9  2CA4               	goto	u1965
  3413     04AA                     l2234:
  3414     04AA  3001               	movlw	1
  3415     04AB  07F6               	addwf	___awmod@counter,f
  3416     04AC                     l2236:
  3417     04AC  1FA5               	btfss	___awmod@divisor+1,7
  3418     04AD  2CAF               	goto	u1971
  3419     04AE  2CB0               	goto	u1970
  3420     04AF                     u1971:
  3421     04AF  2CA3               	goto	l2232
  3422     04B0                     u1970:
  3423     04B0                     l2238:
  3424     04B0  0825               	movf	___awmod@divisor+1,w
  3425     04B1  0227               	subwf	___awmod@dividend+1,w
  3426     04B2  1D03               	skipz
  3427     04B3  2CB6               	goto	u1985
  3428     04B4  0824               	movf	___awmod@divisor,w
  3429     04B5  0226               	subwf	___awmod@dividend,w
  3430     04B6                     u1985:
  3431     04B6  1C03               	skipc
  3432     04B7  2CB9               	goto	u1981
  3433     04B8  2CBA               	goto	u1980
  3434     04B9                     u1981:
  3435     04B9  2CC0               	goto	l2242
  3436     04BA                     u1980:
  3437     04BA                     l2240:
  3438     04BA  0824               	movf	___awmod@divisor,w
  3439     04BB  02A6               	subwf	___awmod@dividend,f
  3440     04BC  0825               	movf	___awmod@divisor+1,w
  3441     04BD  1C03               	skipc
  3442     04BE  03A7               	decf	___awmod@dividend+1,f
  3443     04BF  02A7               	subwf	___awmod@dividend+1,f
  3444     04C0                     l2242:
  3445     04C0  3001               	movlw	1
  3446     04C1                     u1995:
  3447     04C1  1003               	clrc
  3448     04C2  0CA5               	rrf	___awmod@divisor+1,f
  3449     04C3  0CA4               	rrf	___awmod@divisor,f
  3450     04C4  3EFF               	addlw	-1
  3451     04C5  1D03               	skipz
  3452     04C6  2CC1               	goto	u1995
  3453     04C7                     l2244:
  3454     04C7  3001               	movlw	1
  3455     04C8  02F6               	subwf	___awmod@counter,f
  3456     04C9  1D03               	btfss	3,2
  3457     04CA  2CCC               	goto	u2001
  3458     04CB  2CCD               	goto	u2000
  3459     04CC                     u2001:
  3460     04CC  2CB0               	goto	l2238
  3461     04CD                     u2000:
  3462     04CD                     l2246:
  3463     04CD  0877               	movf	___awmod@sign,w
  3464     04CE  1903               	btfsc	3,2
  3465     04CF  2CD1               	goto	u2011
  3466     04D0  2CD2               	goto	u2010
  3467     04D1                     u2011:
  3468     04D1  2CD7               	goto	l2250
  3469     04D2                     u2010:
  3470     04D2                     l2248:
  3471     04D2  09A6               	comf	___awmod@dividend,f
  3472     04D3  09A7               	comf	___awmod@dividend+1,f
  3473     04D4  0AA6               	incf	___awmod@dividend,f
  3474     04D5  1903               	skipnz
  3475     04D6  0AA7               	incf	___awmod@dividend+1,f
  3476     04D7                     l2250:
  3477     04D7  0827               	movf	___awmod@dividend+1,w
  3478     04D8  00A5               	movwf	?___awmod+1
  3479     04D9  0826               	movf	___awmod@dividend,w
  3480     04DA  00A4               	movwf	?___awmod
  3481     04DB                     l572:
  3482     04DB  0008               	return
  3483     04DC                     __end_of___awmod:
  3484                           
  3485                           	psect	text10
  3486     077D                     __ptext10:	
  3487 ;; *************** function ___awdiv *****************
  3488 ;; Defined at:
  3489 ;;		line 5 in file "C:\Program Files\Microchip\xc8\v3.10\pic\sources\c99\common\awdiv.c"
  3490 ;; Parameters:    Size  Location     Type
  3491 ;;  divisor         2    2[COMMON] int 
  3492 ;;  dividend        2    4[COMMON] int 
  3493 ;; Auto vars:     Size  Location     Type
  3494 ;;  quotient        2    2[BANK0 ] int 
  3495 ;;  sign            1    1[BANK0 ] unsigned char 
  3496 ;;  counter         1    0[BANK0 ] unsigned char 
  3497 ;; Return value:  Size  Location     Type
  3498 ;;                  2    2[COMMON] int 
  3499 ;; Registers used:
  3500 ;;		wreg, status,2, status,0
  3501 ;; Tracked objects:
  3502 ;;		On entry : 0/0
  3503 ;;		On exit  : 0/0
  3504 ;;		Unchanged: 0/0
  3505 ;; Data sizes:     COMMON   BANK0   BANK1   BANK3   BANK2
  3506 ;;      Params:         4       0       0       0       0
  3507 ;;      Locals:         0       4       0       0       0
  3508 ;;      Temps:          0       0       0       0       0
  3509 ;;      Totals:         4       4       0       0       0
  3510 ;;Total ram usage:        8 bytes
  3511 ;; Hardware stack levels used: 1
  3512 ;; Hardware stack levels required when called: 1
  3513 ;; This function calls:
  3514 ;;		Nothing
  3515 ;; This function is called by:
  3516 ;;		_set_time
  3517 ;;		_time_display
  3518 ;;		_set_temp
  3519 ;; This function uses a non-reentrant model
  3520 ;;
  3521                           
  3522     077D                     ___awdiv:	
  3523                           ;psect for function ___awdiv
  3524                           
  3525     077D                     l2552:	
  3526                           ;incstack = 0
  3527                           ; Regs used in ___awdiv: [wreg+status,2+status,0]
  3528                           
  3529     077D  1283               	bcf	3,5	;RP0=0, select bank0
  3530     077E  1303               	bcf	3,6	;RP1=0, select bank0
  3531     077F  01A1               	clrf	___awdiv@sign
  3532     0780                     l2554:
  3533     0780  1FF3               	btfss	___awdiv@divisor+1,7
  3534     0781  2F83               	goto	u2441
  3535     0782  2F84               	goto	u2440
  3536     0783                     u2441:
  3537     0783  2F8B               	goto	l2560
  3538     0784                     u2440:
  3539     0784                     l2556:
  3540     0784  09F2               	comf	___awdiv@divisor,f
  3541     0785  09F3               	comf	___awdiv@divisor+1,f
  3542     0786  0AF2               	incf	___awdiv@divisor,f
  3543     0787  1903               	skipnz
  3544     0788  0AF3               	incf	___awdiv@divisor+1,f
  3545     0789                     l2558:
  3546     0789  3001               	movlw	1
  3547     078A  00A1               	movwf	___awdiv@sign
  3548     078B                     l2560:
  3549     078B  1FF5               	btfss	___awdiv@dividend+1,7
  3550     078C  2F8E               	goto	u2451
  3551     078D  2F8F               	goto	u2450
  3552     078E                     u2451:
  3553     078E  2F96               	goto	l2566
  3554     078F                     u2450:
  3555     078F                     l2562:
  3556     078F  09F4               	comf	___awdiv@dividend,f
  3557     0790  09F5               	comf	___awdiv@dividend+1,f
  3558     0791  0AF4               	incf	___awdiv@dividend,f
  3559     0792  1903               	skipnz
  3560     0793  0AF5               	incf	___awdiv@dividend+1,f
  3561     0794                     l2564:
  3562     0794  3001               	movlw	1
  3563     0795  06A1               	xorwf	___awdiv@sign,f
  3564     0796                     l2566:
  3565     0796  01A2               	clrf	___awdiv@quotient
  3566     0797  01A3               	clrf	___awdiv@quotient+1
  3567     0798                     l2568:
  3568     0798  0872               	movf	___awdiv@divisor,w
  3569     0799  0473               	iorwf	___awdiv@divisor+1,w
  3570     079A  1903               	btfsc	3,2
  3571     079B  2F9D               	goto	u2461
  3572     079C  2F9E               	goto	u2460
  3573     079D                     u2461:
  3574     079D  2FD3               	goto	l2588
  3575     079E                     u2460:
  3576     079E                     l2570:
  3577     079E  3001               	movlw	1
  3578     079F  00A0               	movwf	___awdiv@counter
  3579     07A0  2FAA               	goto	l2576
  3580     07A1                     l2572:
  3581     07A1  3001               	movlw	1
  3582     07A2                     u2475:
  3583     07A2  1003               	clrc
  3584     07A3  0DF2               	rlf	___awdiv@divisor,f
  3585     07A4  0DF3               	rlf	___awdiv@divisor+1,f
  3586     07A5  3EFF               	addlw	-1
  3587     07A6  1D03               	skipz
  3588     07A7  2FA2               	goto	u2475
  3589     07A8                     l2574:
  3590     07A8  3001               	movlw	1
  3591     07A9  07A0               	addwf	___awdiv@counter,f
  3592     07AA                     l2576:
  3593     07AA  1FF3               	btfss	___awdiv@divisor+1,7
  3594     07AB  2FAD               	goto	u2481
  3595     07AC  2FAE               	goto	u2480
  3596     07AD                     u2481:
  3597     07AD  2FA1               	goto	l2572
  3598     07AE                     u2480:
  3599     07AE                     l2578:
  3600     07AE  3001               	movlw	1
  3601     07AF                     u2495:
  3602     07AF  1003               	clrc
  3603     07B0  0DA2               	rlf	___awdiv@quotient,f
  3604     07B1  0DA3               	rlf	___awdiv@quotient+1,f
  3605     07B2  3EFF               	addlw	-1
  3606     07B3  1D03               	skipz
  3607     07B4  2FAF               	goto	u2495
  3608     07B5  0873               	movf	___awdiv@divisor+1,w
  3609     07B6  0275               	subwf	___awdiv@dividend+1,w
  3610     07B7  1D03               	skipz
  3611     07B8  2FBB               	goto	u2505
  3612     07B9  0872               	movf	___awdiv@divisor,w
  3613     07BA  0274               	subwf	___awdiv@dividend,w
  3614     07BB                     u2505:
  3615     07BB  1C03               	skipc
  3616     07BC  2FBE               	goto	u2501
  3617     07BD  2FBF               	goto	u2500
  3618     07BE                     u2501:
  3619     07BE  2FC6               	goto	l2584
  3620     07BF                     u2500:
  3621     07BF                     l2580:
  3622     07BF  0872               	movf	___awdiv@divisor,w
  3623     07C0  02F4               	subwf	___awdiv@dividend,f
  3624     07C1  0873               	movf	___awdiv@divisor+1,w
  3625     07C2  1C03               	skipc
  3626     07C3  03F5               	decf	___awdiv@dividend+1,f
  3627     07C4  02F5               	subwf	___awdiv@dividend+1,f
  3628     07C5                     l2582:
  3629     07C5  1422               	bsf	___awdiv@quotient,0
  3630     07C6                     l2584:
  3631     07C6  3001               	movlw	1
  3632     07C7                     u2515:
  3633     07C7  1003               	clrc
  3634     07C8  0CF3               	rrf	___awdiv@divisor+1,f
  3635     07C9  0CF2               	rrf	___awdiv@divisor,f
  3636     07CA  3EFF               	addlw	-1
  3637     07CB  1D03               	skipz
  3638     07CC  2FC7               	goto	u2515
  3639     07CD                     l2586:
  3640     07CD  3001               	movlw	1
  3641     07CE  02A0               	subwf	___awdiv@counter,f
  3642     07CF  1D03               	btfss	3,2
  3643     07D0  2FD2               	goto	u2521
  3644     07D1  2FD3               	goto	u2520
  3645     07D2                     u2521:
  3646     07D2  2FAE               	goto	l2578
  3647     07D3                     u2520:
  3648     07D3                     l2588:
  3649     07D3  0821               	movf	___awdiv@sign,w
  3650     07D4  1903               	btfsc	3,2
  3651     07D5  2FD7               	goto	u2531
  3652     07D6  2FD8               	goto	u2530
  3653     07D7                     u2531:
  3654     07D7  2FDD               	goto	l2592
  3655     07D8                     u2530:
  3656     07D8                     l2590:
  3657     07D8  09A2               	comf	___awdiv@quotient,f
  3658     07D9  09A3               	comf	___awdiv@quotient+1,f
  3659     07DA  0AA2               	incf	___awdiv@quotient,f
  3660     07DB  1903               	skipnz
  3661     07DC  0AA3               	incf	___awdiv@quotient+1,f
  3662     07DD                     l2592:
  3663     07DD  0823               	movf	___awdiv@quotient+1,w
  3664     07DE  00F3               	movwf	?___awdiv+1
  3665     07DF  0822               	movf	___awdiv@quotient,w
  3666     07E0  00F2               	movwf	?___awdiv
  3667     07E1                     l559:
  3668     07E1  0008               	return
  3669     07E2                     __end_of___awdiv:
  3670                           
  3671                           	psect	text11
  3672     04DC                     __ptext11:	
  3673 ;; *************** function _read_matrix_keypad *****************
  3674 ;; Defined at:
  3675 ;;		line 111 in file "matrix_keypad.c"
  3676 ;; Parameters:    Size  Location     Type
  3677 ;;  mode            1    wreg     unsigned char 
  3678 ;; Auto vars:     Size  Location     Type
  3679 ;;  mode            1    4[COMMON] unsigned char 
  3680 ;;  key             1    5[COMMON] unsigned char 
  3681 ;; Return value:  Size  Location     Type
  3682 ;;                  1    wreg      unsigned char 
  3683 ;; Registers used:
  3684 ;;		wreg, status,2, status,0, pclath, cstack
  3685 ;; Tracked objects:
  3686 ;;		On entry : 0/0
  3687 ;;		On exit  : 0/0
  3688 ;;		Unchanged: 0/0
  3689 ;; Data sizes:     COMMON   BANK0   BANK1   BANK3   BANK2
  3690 ;;      Params:         0       0       0       0       0
  3691 ;;      Locals:         2       0       0       0       0
  3692 ;;      Temps:          0       0       0       0       0
  3693 ;;      Totals:         2       0       0       0       0
  3694 ;;Total ram usage:        2 bytes
  3695 ;; Hardware stack levels used: 1
  3696 ;; Hardware stack levels required when called: 2
  3697 ;; This function calls:
  3698 ;;		_scan_keypad
  3699 ;; This function is called by:
  3700 ;;		_main
  3701 ;; This function uses a non-reentrant model
  3702 ;;
  3703                           
  3704     04DC                     _read_matrix_keypad:	
  3705                           ;psect for function _read_matrix_keypad
  3706                           
  3707                           
  3708                           ;incstack = 0
  3709                           ; Regs used in _read_matrix_keypad: [wreg+status,2+status,0+pclath+cstack]
  3710                           ;read_matrix_keypad@mode stored from wreg
  3711     04DC  00F4               	movwf	read_matrix_keypad@mode
  3712     04DD                     l1780:
  3713                           
  3714                           ;matrix_keypad.c: 111: unsigned char read_matrix_keypad(unsigned char mode);matrix_keypa
      +                          d.c: 112: {;matrix_keypad.c: 113:     static unsigned char once = 1;;matrix_keypad.c: 11
      +                          4:     unsigned char key;;matrix_keypad.c: 116:     key = scan_keypad();
  3715     04DD  120A  118A  26D1  120A  118A  	fcall	_scan_keypad
  3716     04E2  00F5               	movwf	read_matrix_keypad@key
  3717     04E3                     l1782:
  3718                           
  3719                           ;matrix_keypad.c: 118:     if (mode == 0)
  3720     04E3  0874               	movf	read_matrix_keypad@mode,w
  3721     04E4  1D03               	btfss	3,2
  3722     04E5  2CE7               	goto	u1331
  3723     04E6  2CE8               	goto	u1330
  3724     04E7                     u1331:
  3725     04E7  2CEA               	goto	l1790
  3726     04E8                     u1330:
  3727     04E8                     l1784:
  3728                           
  3729                           ;matrix_keypad.c: 119:     {;matrix_keypad.c: 120:         return key;
  3730     04E8  0875               	movf	read_matrix_keypad@key,w
  3731     04E9  2CFE               	goto	l185
  3732     04EA                     l1790:
  3733                           
  3734                           ;matrix_keypad.c: 123:     {;matrix_keypad.c: 124:         if ((key != 0xFF) && once)
  3735     04EA  0A75               	incf	read_matrix_keypad@key,w
  3736     04EB  1903               	btfsc	3,2
  3737     04EC  2CEE               	goto	u1341
  3738     04ED  2CEF               	goto	u1340
  3739     04EE                     u1341:
  3740     04EE  2CF6               	goto	l1802
  3741     04EF                     u1340:
  3742     04EF                     l1792:
  3743     04EF  087B               	movf	read_matrix_keypad@once,w
  3744     04F0  1903               	btfsc	3,2
  3745     04F1  2CF3               	goto	u1351
  3746     04F2  2CF4               	goto	u1350
  3747     04F3                     u1351:
  3748     04F3  2CF6               	goto	l1802
  3749     04F4                     u1350:
  3750     04F4                     l1794:
  3751                           
  3752                           ;matrix_keypad.c: 125:         {;matrix_keypad.c: 126:             once = 0;
  3753     04F4  01FB               	clrf	read_matrix_keypad@once
  3754     04F5  2CE8               	goto	l1784
  3755     04F6                     l1802:
  3756     04F6  0A75               	incf	read_matrix_keypad@key,w
  3757     04F7  1D03               	btfss	3,2
  3758     04F8  2CFA               	goto	u1361
  3759     04F9  2CFB               	goto	u1360
  3760     04FA                     u1361:
  3761     04FA  2CFD               	goto	l1806
  3762     04FB                     u1360:
  3763     04FB                     l1804:
  3764                           
  3765                           ;matrix_keypad.c: 131:         {;matrix_keypad.c: 132:             once = 1;
  3766     04FB  3001               	movlw	1
  3767     04FC  00FB               	movwf	read_matrix_keypad@once
  3768     04FD                     l1806:
  3769                           
  3770                           ;matrix_keypad.c: 136:     return 0xFF;
  3771     04FD  30FF               	movlw	255
  3772     04FE                     l185:
  3773     04FE  0008               	return
  3774     04FF                     __end_of_read_matrix_keypad:
  3775                           
  3776                           	psect	text12
  3777     06D1                     __ptext12:	
  3778 ;; *************** function _scan_keypad *****************
  3779 ;; Defined at:
  3780 ;;		line 24 in file "matrix_keypad.c"
  3781 ;; Parameters:    Size  Location     Type
  3782 ;;		None
  3783 ;; Auto vars:     Size  Location     Type
  3784 ;;  i               2    2[COMMON] int 
  3785 ;; Return value:  Size  Location     Type
  3786 ;;                  1    wreg      unsigned char 
  3787 ;; Registers used:
  3788 ;;		wreg, status,2, status,0
  3789 ;; Tracked objects:
  3790 ;;		On entry : 0/0
  3791 ;;		On exit  : 0/0
  3792 ;;		Unchanged: 0/0
  3793 ;; Data sizes:     COMMON   BANK0   BANK1   BANK3   BANK2
  3794 ;;      Params:         0       0       0       0       0
  3795 ;;      Locals:         2       0       0       0       0
  3796 ;;      Temps:          0       0       0       0       0
  3797 ;;      Totals:         2       0       0       0       0
  3798 ;;Total ram usage:        2 bytes
  3799 ;; Hardware stack levels used: 1
  3800 ;; Hardware stack levels required when called: 1
  3801 ;; This function calls:
  3802 ;;		Nothing
  3803 ;; This function is called by:
  3804 ;;		_read_matrix_keypad
  3805 ;; This function uses a non-reentrant model
  3806 ;;
  3807                           
  3808     06D1                     _scan_keypad:	
  3809                           ;psect for function _scan_keypad
  3810                           
  3811     06D1                     l1578:	
  3812                           ;incstack = 0
  3813                           ; Regs used in _scan_keypad: [wreg+status,2+status,0]
  3814                           
  3815                           
  3816                           ;matrix_keypad.c: 26:     int i;;matrix_keypad.c: 28:     RD3 = 0;
  3817     06D1  1283               	bcf	3,5	;RP0=0, select bank0
  3818     06D2  1303               	bcf	3,6	;RP1=0, select bank0
  3819     06D3  1188               	bcf	8,3	;volatile
  3820                           
  3821                           ;matrix_keypad.c: 29:     RD2 = 1;
  3822     06D4  1508               	bsf	8,2	;volatile
  3823                           
  3824                           ;matrix_keypad.c: 30:     RD1 = 1;
  3825     06D5  1488               	bsf	8,1	;volatile
  3826                           
  3827                           ;matrix_keypad.c: 31:     RD0 = 1;
  3828     06D6  1408               	bsf	8,0	;volatile
  3829     06D7                     l1580:
  3830                           
  3831                           ;matrix_keypad.c: 33:     for (i = 100; i--; );
  3832     06D7  3064               	movlw	100
  3833     06D8  00F2               	movwf	scan_keypad@i
  3834     06D9  3000               	movlw	0
  3835     06DA  00F3               	movwf	scan_keypad@i+1
  3836     06DB                     l1582:
  3837     06DB  30FF               	movlw	255
  3838     06DC  07F2               	addwf	scan_keypad@i,f
  3839     06DD  1803               	skipnc
  3840     06DE  0AF3               	incf	scan_keypad@i+1,f
  3841     06DF  30FF               	movlw	255
  3842     06E0  07F3               	addwf	scan_keypad@i+1,f
  3843     06E1  0A72               	incf	scan_keypad@i,w
  3844     06E2  1D03               	skipz
  3845     06E3  2EE8               	goto	u911
  3846     06E4  0A73               	incf	scan_keypad@i+1,w
  3847     06E5  1D03               	btfss	3,2
  3848     06E6  2EE8               	goto	u911
  3849     06E7  2EE9               	goto	u910
  3850     06E8                     u911:
  3851     06E8  2EDB               	goto	l1582
  3852     06E9                     u910:
  3853     06E9                     l149:
  3854                           
  3855                           ;matrix_keypad.c: 35:     if (RB0 == 0)
  3856     06E9  1283               	bcf	3,5	;RP0=0, select bank0
  3857     06EA  1303               	bcf	3,6	;RP1=0, select bank0
  3858     06EB  1806               	btfsc	6,0	;volatile
  3859     06EC  2EEE               	goto	u921
  3860     06ED  2EEF               	goto	u920
  3861     06EE                     u921:
  3862     06EE  2EF1               	goto	l150
  3863     06EF                     u920:
  3864     06EF                     l1584:
  3865                           
  3866                           ;matrix_keypad.c: 36:     {;matrix_keypad.c: 37:         return 1;
  3867     06EF  3001               	movlw	1
  3868     06F0  2F7C               	goto	l151
  3869     06F1                     l150:	
  3870                           ;matrix_keypad.c: 39:     else if (RB1 == 0)
  3871                           
  3872     06F1  1886               	btfsc	6,1	;volatile
  3873     06F2  2EF4               	goto	u931
  3874     06F3  2EF5               	goto	u930
  3875     06F4                     u931:
  3876     06F4  2EF7               	goto	l153
  3877     06F5                     u930:
  3878     06F5                     l1590:
  3879                           
  3880                           ;matrix_keypad.c: 40:     {;matrix_keypad.c: 41:         return 2;
  3881     06F5  3002               	movlw	2
  3882     06F6  2F7C               	goto	l151
  3883     06F7                     l153:	
  3884                           ;matrix_keypad.c: 43:     else if (RB2 == 0)
  3885                           
  3886     06F7  1906               	btfsc	6,2	;volatile
  3887     06F8  2EFA               	goto	u941
  3888     06F9  2EFB               	goto	u940
  3889     06FA                     u941:
  3890     06FA  2EFD               	goto	l152
  3891     06FB                     u940:
  3892     06FB                     l1596:
  3893                           
  3894                           ;matrix_keypad.c: 44:     {;matrix_keypad.c: 45:         return 3;
  3895     06FB  3003               	movlw	3
  3896     06FC  2F7C               	goto	l151
  3897     06FD                     l152:
  3898                           
  3899                           ;matrix_keypad.c: 48:     RD3 = 1;
  3900     06FD  1588               	bsf	8,3	;volatile
  3901                           
  3902                           ;matrix_keypad.c: 49:     RD2 = 0;
  3903     06FE  1108               	bcf	8,2	;volatile
  3904                           
  3905                           ;matrix_keypad.c: 50:     RD1 = 1;
  3906     06FF  1488               	bsf	8,1	;volatile
  3907                           
  3908                           ;matrix_keypad.c: 51:     RD0 = 1;
  3909     0700  1408               	bsf	8,0	;volatile
  3910     0701                     l1600:
  3911                           
  3912                           ;matrix_keypad.c: 53:     for (i = 100; i--; );
  3913     0701  3064               	movlw	100
  3914     0702  00F2               	movwf	scan_keypad@i
  3915     0703  3000               	movlw	0
  3916     0704  00F3               	movwf	scan_keypad@i+1
  3917     0705                     l1602:
  3918     0705  30FF               	movlw	255
  3919     0706  07F2               	addwf	scan_keypad@i,f
  3920     0707  1803               	skipnc
  3921     0708  0AF3               	incf	scan_keypad@i+1,f
  3922     0709  30FF               	movlw	255
  3923     070A  07F3               	addwf	scan_keypad@i+1,f
  3924     070B  0A72               	incf	scan_keypad@i,w
  3925     070C  1D03               	skipz
  3926     070D  2F12               	goto	u951
  3927     070E  0A73               	incf	scan_keypad@i+1,w
  3928     070F  1D03               	btfss	3,2
  3929     0710  2F12               	goto	u951
  3930     0711  2F13               	goto	u950
  3931     0712                     u951:
  3932     0712  2F05               	goto	l1602
  3933     0713                     u950:
  3934     0713                     l158:
  3935                           
  3936                           ;matrix_keypad.c: 55:     if (RB0 == 0)
  3937     0713  1283               	bcf	3,5	;RP0=0, select bank0
  3938     0714  1303               	bcf	3,6	;RP1=0, select bank0
  3939     0715  1806               	btfsc	6,0	;volatile
  3940     0716  2F18               	goto	u961
  3941     0717  2F19               	goto	u960
  3942     0718                     u961:
  3943     0718  2F1B               	goto	l159
  3944     0719                     u960:
  3945     0719                     l1604:
  3946                           
  3947                           ;matrix_keypad.c: 56:     {;matrix_keypad.c: 57:         return 4;
  3948     0719  3004               	movlw	4
  3949     071A  2F7C               	goto	l151
  3950     071B                     l159:	
  3951                           ;matrix_keypad.c: 59:     else if (RB1 == 0)
  3952                           
  3953     071B  1886               	btfsc	6,1	;volatile
  3954     071C  2F1E               	goto	u971
  3955     071D  2F1F               	goto	u970
  3956     071E                     u971:
  3957     071E  2F21               	goto	l161
  3958     071F                     u970:
  3959     071F                     l1610:
  3960                           
  3961                           ;matrix_keypad.c: 60:     {;matrix_keypad.c: 61:         return 5;
  3962     071F  3005               	movlw	5
  3963     0720  2F7C               	goto	l151
  3964     0721                     l161:	
  3965                           ;matrix_keypad.c: 63:     else if (RB2 == 0)
  3966                           
  3967     0721  1906               	btfsc	6,2	;volatile
  3968     0722  2F24               	goto	u981
  3969     0723  2F25               	goto	u980
  3970     0724                     u981:
  3971     0724  2F27               	goto	l160
  3972     0725                     u980:
  3973     0725                     l1616:
  3974                           
  3975                           ;matrix_keypad.c: 64:     {;matrix_keypad.c: 65:         return 6;
  3976     0725  3006               	movlw	6
  3977     0726  2F7C               	goto	l151
  3978     0727                     l160:
  3979                           
  3980                           ;matrix_keypad.c: 68:     RD3 = 1;
  3981     0727  1588               	bsf	8,3	;volatile
  3982                           
  3983                           ;matrix_keypad.c: 69:     RD2 = 1;
  3984     0728  1508               	bsf	8,2	;volatile
  3985                           
  3986                           ;matrix_keypad.c: 70:     RD1 = 0;
  3987     0729  1088               	bcf	8,1	;volatile
  3988                           
  3989                           ;matrix_keypad.c: 71:     RD0 = 1;
  3990     072A  1408               	bsf	8,0	;volatile
  3991     072B                     l1620:
  3992                           
  3993                           ;matrix_keypad.c: 73:     for (i = 100; i--; );
  3994     072B  3064               	movlw	100
  3995     072C  00F2               	movwf	scan_keypad@i
  3996     072D  3000               	movlw	0
  3997     072E  00F3               	movwf	scan_keypad@i+1
  3998     072F                     l1622:
  3999     072F  30FF               	movlw	255
  4000     0730  07F2               	addwf	scan_keypad@i,f
  4001     0731  1803               	skipnc
  4002     0732  0AF3               	incf	scan_keypad@i+1,f
  4003     0733  30FF               	movlw	255
  4004     0734  07F3               	addwf	scan_keypad@i+1,f
  4005     0735  0A72               	incf	scan_keypad@i,w
  4006     0736  1D03               	skipz
  4007     0737  2F3C               	goto	u991
  4008     0738  0A73               	incf	scan_keypad@i+1,w
  4009     0739  1D03               	btfss	3,2
  4010     073A  2F3C               	goto	u991
  4011     073B  2F3D               	goto	u990
  4012     073C                     u991:
  4013     073C  2F2F               	goto	l1622
  4014     073D                     u990:
  4015     073D                     l166:
  4016                           
  4017                           ;matrix_keypad.c: 75:     if (RB0 == 0)
  4018     073D  1283               	bcf	3,5	;RP0=0, select bank0
  4019     073E  1303               	bcf	3,6	;RP1=0, select bank0
  4020     073F  1806               	btfsc	6,0	;volatile
  4021     0740  2F42               	goto	u1001
  4022     0741  2F43               	goto	u1000
  4023     0742                     u1001:
  4024     0742  2F45               	goto	l167
  4025     0743                     u1000:
  4026     0743                     l1624:
  4027                           
  4028                           ;matrix_keypad.c: 76:     {;matrix_keypad.c: 77:         return 7;
  4029     0743  3007               	movlw	7
  4030     0744  2F7C               	goto	l151
  4031     0745                     l167:	
  4032                           ;matrix_keypad.c: 79:     else if (RB1 == 0)
  4033                           
  4034     0745  1886               	btfsc	6,1	;volatile
  4035     0746  2F48               	goto	u1011
  4036     0747  2F49               	goto	u1010
  4037     0748                     u1011:
  4038     0748  2F4B               	goto	l169
  4039     0749                     u1010:
  4040     0749                     l1630:
  4041                           
  4042                           ;matrix_keypad.c: 80:     {;matrix_keypad.c: 81:         return 8;
  4043     0749  3008               	movlw	8
  4044     074A  2F7C               	goto	l151
  4045     074B                     l169:	
  4046                           ;matrix_keypad.c: 83:     else if (RB2 == 0)
  4047                           
  4048     074B  1906               	btfsc	6,2	;volatile
  4049     074C  2F4E               	goto	u1021
  4050     074D  2F4F               	goto	u1020
  4051     074E                     u1021:
  4052     074E  2F51               	goto	l168
  4053     074F                     u1020:
  4054     074F                     l1636:
  4055                           
  4056                           ;matrix_keypad.c: 84:     {;matrix_keypad.c: 85:         return 9;
  4057     074F  3009               	movlw	9
  4058     0750  2F7C               	goto	l151
  4059     0751                     l168:
  4060                           
  4061                           ;matrix_keypad.c: 88:     RD3 = 1;
  4062     0751  1588               	bsf	8,3	;volatile
  4063                           
  4064                           ;matrix_keypad.c: 89:     RD2 = 1;
  4065     0752  1508               	bsf	8,2	;volatile
  4066                           
  4067                           ;matrix_keypad.c: 90:     RD1 = 1;
  4068     0753  1488               	bsf	8,1	;volatile
  4069                           
  4070                           ;matrix_keypad.c: 91:     RD0 = 0;
  4071     0754  1008               	bcf	8,0	;volatile
  4072     0755                     l1640:
  4073                           
  4074                           ;matrix_keypad.c: 93:     for (i = 100; i--; );
  4075     0755  3064               	movlw	100
  4076     0756  00F2               	movwf	scan_keypad@i
  4077     0757  3000               	movlw	0
  4078     0758  00F3               	movwf	scan_keypad@i+1
  4079     0759                     l1642:
  4080     0759  30FF               	movlw	255
  4081     075A  07F2               	addwf	scan_keypad@i,f
  4082     075B  1803               	skipnc
  4083     075C  0AF3               	incf	scan_keypad@i+1,f
  4084     075D  30FF               	movlw	255
  4085     075E  07F3               	addwf	scan_keypad@i+1,f
  4086     075F  0A72               	incf	scan_keypad@i,w
  4087     0760  1D03               	skipz
  4088     0761  2F66               	goto	u1031
  4089     0762  0A73               	incf	scan_keypad@i+1,w
  4090     0763  1D03               	btfss	3,2
  4091     0764  2F66               	goto	u1031
  4092     0765  2F67               	goto	u1030
  4093     0766                     u1031:
  4094     0766  2F59               	goto	l1642
  4095     0767                     u1030:
  4096     0767                     l174:
  4097                           
  4098                           ;matrix_keypad.c: 95:     if (RB0 == 0)
  4099     0767  1283               	bcf	3,5	;RP0=0, select bank0
  4100     0768  1303               	bcf	3,6	;RP1=0, select bank0
  4101     0769  1806               	btfsc	6,0	;volatile
  4102     076A  2F6C               	goto	u1041
  4103     076B  2F6D               	goto	u1040
  4104     076C                     u1041:
  4105     076C  2F6F               	goto	l175
  4106     076D                     u1040:
  4107     076D                     l1644:
  4108                           
  4109                           ;matrix_keypad.c: 96:     {;matrix_keypad.c: 97:         return '*';
  4110     076D  302A               	movlw	42
  4111     076E  2F7C               	goto	l151
  4112     076F                     l175:	
  4113                           ;matrix_keypad.c: 99:     else if (RB1 == 0)
  4114                           
  4115     076F  1886               	btfsc	6,1	;volatile
  4116     0770  2F72               	goto	u1051
  4117     0771  2F73               	goto	u1050
  4118     0772                     u1051:
  4119     0772  2F75               	goto	l177
  4120     0773                     u1050:
  4121     0773                     l1650:
  4122                           
  4123                           ;matrix_keypad.c: 100:     {;matrix_keypad.c: 101:         return 0;
  4124     0773  3000               	movlw	0
  4125     0774  2F7C               	goto	l151
  4126     0775                     l177:	
  4127                           ;matrix_keypad.c: 103:     else if (RB2 == 0)
  4128                           
  4129     0775  1906               	btfsc	6,2	;volatile
  4130     0776  2F78               	goto	u1061
  4131     0777  2F79               	goto	u1060
  4132     0778                     u1061:
  4133     0778  2F7B               	goto	l1660
  4134     0779                     u1060:
  4135     0779                     l1656:
  4136                           
  4137                           ;matrix_keypad.c: 104:     {;matrix_keypad.c: 105:         return '#';
  4138     0779  3023               	movlw	35
  4139     077A  2F7C               	goto	l151
  4140     077B                     l1660:
  4141                           
  4142                           ;matrix_keypad.c: 108:     return 0xFF;
  4143     077B  30FF               	movlw	255
  4144     077C                     l151:
  4145     077C  0008               	return
  4146     077D                     __end_of_scan_keypad:
  4147                           
  4148                           	psect	text13
  4149     0FB3                     __ptext13:	
  4150 ;; *************** function _power_on_screen *****************
  4151 ;; Defined at:
  4152 ;;		line 10 in file "microoven.c"
  4153 ;; Parameters:    Size  Location     Type
  4154 ;;		None
  4155 ;; Auto vars:     Size  Location     Type
  4156 ;;  i               1   14[BANK0 ] unsigned char 
  4157 ;;  i               1   13[BANK0 ] unsigned char 
  4158 ;; Return value:  Size  Location     Type
  4159 ;;                  1    wreg      void 
  4160 ;; Registers used:
  4161 ;;		wreg, fsr0l, fsr0h, status,2, status,0, pclath, cstack
  4162 ;; Tracked objects:
  4163 ;;		On entry : 0/0
  4164 ;;		On exit  : 0/0
  4165 ;;		Unchanged: 0/0
  4166 ;; Data sizes:     COMMON   BANK0   BANK1   BANK3   BANK2
  4167 ;;      Params:         0       0       0       0       0
  4168 ;;      Locals:         0       2       0       0       0
  4169 ;;      Temps:          0       3       0       0       0
  4170 ;;      Totals:         0       5       0       0       0
  4171 ;;Total ram usage:        5 bytes
  4172 ;; Hardware stack levels used: 1
  4173 ;; Hardware stack levels required when called: 3
  4174 ;; This function calls:
  4175 ;;		_clcd_print
  4176 ;;		_clcd_putch
  4177 ;; This function is called by:
  4178 ;;		_main
  4179 ;; This function uses a non-reentrant model
  4180 ;;
  4181                           
  4182     0FB3                     _power_on_screen:	
  4183                           ;psect for function _power_on_screen
  4184                           
  4185     0FB3                     l1810:	
  4186                           ;incstack = 0
  4187                           ; Regs used in _power_on_screen: [wreg-fsr0h+status,2+status,0+pclath+cstack]
  4188                           
  4189                           
  4190                           ;microoven.c: 12:     for(unsigned char i = 0; i<16; i++)
  4191     0FB3  1283               	bcf	3,5	;RP0=0, select bank0
  4192     0FB4  1303               	bcf	3,6	;RP1=0, select bank0
  4193     0FB5  01AD               	clrf	power_on_screen@i
  4194     0FB6                     l1816:
  4195                           
  4196                           ;microoven.c: 13:     {;microoven.c: 14:         clcd_putch(0xFF, (0x80 + i));
  4197     0FB6  082D               	movf	power_on_screen@i,w
  4198     0FB7  3E80               	addlw	128
  4199     0FB8  00A8               	movwf	clcd_putch@addr
  4200     0FB9  30FF               	movlw	255
  4201     0FBA  120A  158A  2640  120A  158A  	fcall	_clcd_putch
  4202     0FBF                     l1818:
  4203                           
  4204                           ;microoven.c: 15:     }
  4205     0FBF  3001               	movlw	1
  4206     0FC0  1283               	bcf	3,5	;RP0=0, select bank0
  4207     0FC1  1303               	bcf	3,6	;RP1=0, select bank0
  4208     0FC2  07AD               	addwf	power_on_screen@i,f
  4209     0FC3                     l1820:
  4210     0FC3  3010               	movlw	16
  4211     0FC4  022D               	subwf	power_on_screen@i,w
  4212     0FC5  1C03               	skipc
  4213     0FC6  2FC8               	goto	u1371
  4214     0FC7  2FC9               	goto	u1370
  4215     0FC8                     u1371:
  4216     0FC8  2FB6               	goto	l1816
  4217     0FC9                     u1370:
  4218     0FC9                     l1822:
  4219                           
  4220                           ;microoven.c: 16:     clcd_print("Powering ON", (0xC0 + 2));
  4221     0FC9  306F               	movlw	(low ((STR_2-__stringbase)| (0+32768)))& (0+255)
  4222     0FCA  00F6               	movwf	clcd_print@str
  4223     0FCB  30C2               	movlw	194
  4224     0FCC  00F7               	movwf	clcd_print@addr
  4225     0FCD  120A  158A  2655  120A  158A  	fcall	_clcd_print
  4226                           
  4227                           ;microoven.c: 17:     clcd_print("Microwave Oven", (0x90 + 1));
  4228     0FD2  3053               	movlw	(low ((STR_3-__stringbase)| (0+32768)))& (0+255)
  4229     0FD3  00F6               	movwf	clcd_print@str
  4230     0FD4  3091               	movlw	145
  4231     0FD5  00F7               	movwf	clcd_print@addr
  4232     0FD6  120A  158A  2655  120A  158A  	fcall	_clcd_print
  4233     0FDB                     l1824:
  4234                           
  4235                           ;microoven.c: 18:     for(unsigned char i = 0; i<16; i++)
  4236     0FDB  1283               	bcf	3,5	;RP0=0, select bank0
  4237     0FDC  1303               	bcf	3,6	;RP1=0, select bank0
  4238     0FDD  01AE               	clrf	power_on_screen@i_175
  4239     0FDE                     l1830:
  4240                           
  4241                           ;microoven.c: 19:     {;microoven.c: 20:         clcd_putch(0xFF, (0xD0 + i));
  4242     0FDE  082E               	movf	power_on_screen@i_175,w
  4243     0FDF  3ED0               	addlw	208
  4244     0FE0  00A8               	movwf	clcd_putch@addr
  4245     0FE1  30FF               	movlw	255
  4246     0FE2  120A  158A  2640  120A  158A  	fcall	_clcd_putch
  4247     0FE7                     l1832:
  4248                           
  4249                           ;microoven.c: 21:     }
  4250     0FE7  3001               	movlw	1
  4251     0FE8  1283               	bcf	3,5	;RP0=0, select bank0
  4252     0FE9  1303               	bcf	3,6	;RP1=0, select bank0
  4253     0FEA  07AE               	addwf	power_on_screen@i_175,f
  4254     0FEB                     l1834:
  4255     0FEB  3010               	movlw	16
  4256     0FEC  022E               	subwf	power_on_screen@i_175,w
  4257     0FED  1C03               	skipc
  4258     0FEE  2FF0               	goto	u1381
  4259     0FEF  2FF1               	goto	u1380
  4260     0FF0                     u1381:
  4261     0FF0  2FDE               	goto	l1830
  4262     0FF1                     u1380:
  4263     0FF1                     l1836:
  4264                           
  4265                           ;microoven.c: 23:     _delay((unsigned long)((5000)*(20000000/4000.0)));
  4266     0FF1  307F               	movlw	127
  4267     0FF2  1283               	bcf	3,5	;RP0=0, select bank0
  4268     0FF3  1303               	bcf	3,6	;RP1=0, select bank0
  4269     0FF4  00AC               	movwf	??_power_on_screen+2
  4270     0FF5  30D4               	movlw	212
  4271     0FF6  00AB               	movwf	??_power_on_screen+1
  4272     0FF7  3031               	movlw	49
  4273     0FF8  00AA               	movwf	??_power_on_screen
  4274     0FF9                     u2937:
  4275     0FF9  0BAA               	decfsz	??_power_on_screen,f
  4276     0FFA  2FF9               	goto	u2937
  4277     0FFB  0BAB               	decfsz	??_power_on_screen+1,f
  4278     0FFC  2FF9               	goto	u2937
  4279     0FFD  0BAC               	decfsz	??_power_on_screen+2,f
  4280     0FFE  2FF9               	goto	u2937
  4281     0FFF                     l263:
  4282     0FFF  0008               	return
  4283     1000                     __end_of_power_on_screen:
  4284                           
  4285                           	psect	text14
  4286     0E40                     __ptext14:	
  4287 ;; *************** function _clcd_putch *****************
  4288 ;; Defined at:
  4289 ;;		line 56 in file "../../Template_Codes/04-CLCD-Sources/4-BitDriver.X/clcd.c"
  4290 ;; Parameters:    Size  Location     Type
  4291 ;;  data            1    wreg     const unsigned char 
  4292 ;;  addr            1    8[BANK0 ] unsigned char 
  4293 ;; Auto vars:     Size  Location     Type
  4294 ;;  data            1    9[BANK0 ] const unsigned char 
  4295 ;; Return value:  Size  Location     Type
  4296 ;;                  1    wreg      void 
  4297 ;; Registers used:
  4298 ;;		wreg, status,2, status,0, pclath, cstack
  4299 ;; Tracked objects:
  4300 ;;		On entry : 0/0
  4301 ;;		On exit  : 0/0
  4302 ;;		Unchanged: 0/0
  4303 ;; Data sizes:     COMMON   BANK0   BANK1   BANK3   BANK2
  4304 ;;      Params:         0       1       0       0       0
  4305 ;;      Locals:         0       1       0       0       0
  4306 ;;      Temps:          0       0       0       0       0
  4307 ;;      Totals:         0       2       0       0       0
  4308 ;;Total ram usage:        2 bytes
  4309 ;; Hardware stack levels used: 1
  4310 ;; Hardware stack levels required when called: 1
  4311 ;; This function calls:
  4312 ;;		_clcd_write
  4313 ;; This function is called by:
  4314 ;;		_power_on_screen
  4315 ;;		_set_time
  4316 ;;		_time_display
  4317 ;;		_set_temp
  4318 ;; This function uses a non-reentrant model
  4319 ;;
  4320                           
  4321     0E40                     _clcd_putch:	
  4322                           ;psect for function _clcd_putch
  4323                           
  4324                           
  4325                           ;incstack = 0
  4326                           ; Regs used in _clcd_putch: [wreg+status,2+status,0+pclath+cstack]
  4327                           ;clcd_putch@data stored from wreg
  4328     0E40  1283               	bcf	3,5	;RP0=0, select bank0
  4329     0E41  1303               	bcf	3,6	;RP1=0, select bank0
  4330     0E42  00A9               	movwf	clcd_putch@data
  4331     0E43                     l1550:
  4332                           
  4333                           ;../../Template_Codes/04-CLCD-Sources/4-BitDriver.X/clcd.c: 56: void clcd_putch(const ch
      +                          ar data, unsigned char addr);../../Template_Codes/04-CLCD-Sources/4-BitDriver.X/clcd.c: 
      +                          57: {;../../Template_Codes/04-CLCD-Sources/4-BitDriver.X/clcd.c: 58:     clcd_write(addr
      +                          , 0);
  4334     0E43  01F2               	clrf	clcd_write@mode
  4335     0E44  0828               	movf	clcd_putch@addr,w
  4336     0E45  120A  158A  26C4  120A  158A  	fcall	_clcd_write
  4337                           
  4338                           ;../../Template_Codes/04-CLCD-Sources/4-BitDriver.X/clcd.c: 59:     clcd_write(data, 1);
  4339     0E4A  01F2               	clrf	clcd_write@mode
  4340     0E4B  0AF2               	incf	clcd_write@mode,f
  4341     0E4C  1283               	bcf	3,5	;RP0=0, select bank0
  4342     0E4D  1303               	bcf	3,6	;RP1=0, select bank0
  4343     0E4E  0829               	movf	clcd_putch@data,w
  4344     0E4F  120A  158A  26C4  120A  158A  	fcall	_clcd_write
  4345     0E54                     l26:
  4346     0E54  0008               	return
  4347     0E55                     __end_of_clcd_putch:
  4348                           
  4349                           	psect	text15
  4350     07E2                     __ptext15:	
  4351 ;; *************** function _init_config *****************
  4352 ;; Defined at:
  4353 ;;		line 22 in file "main.c"
  4354 ;; Parameters:    Size  Location     Type
  4355 ;;		None
  4356 ;; Auto vars:     Size  Location     Type
  4357 ;;		None
  4358 ;; Return value:  Size  Location     Type
  4359 ;;                  1    wreg      void 
  4360 ;; Registers used:
  4361 ;;		wreg, status,2, status,0, pclath, cstack
  4362 ;; Tracked objects:
  4363 ;;		On entry : 0/0
  4364 ;;		On exit  : 0/0
  4365 ;;		Unchanged: 0/0
  4366 ;; Data sizes:     COMMON   BANK0   BANK1   BANK3   BANK2
  4367 ;;      Params:         0       0       0       0       0
  4368 ;;      Locals:         0       0       0       0       0
  4369 ;;      Temps:          0       0       0       0       0
  4370 ;;      Totals:         0       0       0       0       0
  4371 ;;Total ram usage:        0 bytes
  4372 ;; Hardware stack levels used: 1
  4373 ;; Hardware stack levels required when called: 4
  4374 ;; This function calls:
  4375 ;;		_init_clcd
  4376 ;;		_init_matrix_keypad
  4377 ;;		_init_timer2
  4378 ;; This function is called by:
  4379 ;;		_main
  4380 ;; This function uses a non-reentrant model
  4381 ;;
  4382                           
  4383     07E2                     _init_config:	
  4384                           ;psect for function _init_config
  4385                           
  4386     07E2                     l1764:	
  4387                           ;incstack = 0
  4388                           ; Regs used in _init_config: [wreg+status,2+status,0+pclath+cstack]
  4389                           
  4390                           
  4391                           ;main.c: 24:     unsigned char start_mode = 0;
  4392     07E2  120A  158A  25ED  120A  118A  	fcall	_init_clcd
  4393                           
  4394                           ;main.c: 25: 
  4395     07E7  120A  158A  25F8  120A  118A  	fcall	_init_matrix_keypad
  4396     07EC                     l1766:
  4397                           
  4398                           ;main.c: 27: 
  4399     07EC  1683               	bsf	3,5	;RP0=1, select bank1
  4400     07ED  1303               	bcf	3,6	;RP1=0, select bank1
  4401     07EE  1107               	bcf	7,2	;volatile
  4402     07EF                     l1768:
  4403                           
  4404                           ;main.c: 28:     while (1)
  4405     07EF  1283               	bcf	3,5	;RP0=0, select bank0
  4406     07F0  1303               	bcf	3,6	;RP1=0, select bank0
  4407     07F1  1107               	bcf	7,2	;volatile
  4408     07F2                     l1770:
  4409                           
  4410                           ;main.c: 30:         key = read_matrix_keypad(1);
  4411     07F2  1683               	bsf	3,5	;RP0=1, select bank1
  4412     07F3  1303               	bcf	3,6	;RP1=0, select bank1
  4413     07F4  1087               	bcf	7,1	;volatile
  4414     07F5                     l1772:
  4415                           
  4416                           ;main.c: 31:         if(operational_flag == 0x02)
  4417     07F5  1283               	bcf	3,5	;RP0=0, select bank0
  4418     07F6  1303               	bcf	3,6	;RP1=0, select bank0
  4419     07F7  1087               	bcf	7,1	;volatile
  4420     07F8                     l1774:
  4421                           
  4422                           ;main.c: 33:             if(key == 1)
  4423     07F8  120A  158A  262C  120A  118A  	fcall	_init_timer2
  4424     07FD                     l1776:
  4425                           
  4426                           ;main.c: 34:             {
  4427     07FD  170B               	bsf	11,6	;volatile
  4428     07FE                     l1778:
  4429                           
  4430                           ;main.c: 35:                 clear_screen();
  4431     07FE  178B               	bsf	11,7	;volatile
  4432     07FF                     l83:
  4433     07FF  0008               	return
  4434     0800                     __end_of_init_config:
  4435                           
  4436                           	psect	text16
  4437     0E2C                     __ptext16:	
  4438 ;; *************** function _init_timer2 *****************
  4439 ;; Defined at:
  4440 ;;		line 4 in file "timers.c"
  4441 ;; Parameters:    Size  Location     Type
  4442 ;;		None
  4443 ;; Auto vars:     Size  Location     Type
  4444 ;;		None
  4445 ;; Return value:  Size  Location     Type
  4446 ;;                  1    wreg      void 
  4447 ;; Registers used:
  4448 ;;		None
  4449 ;; Tracked objects:
  4450 ;;		On entry : 0/0
  4451 ;;		On exit  : 0/0
  4452 ;;		Unchanged: 0/0
  4453 ;; Data sizes:     COMMON   BANK0   BANK1   BANK3   BANK2
  4454 ;;      Params:         0       0       0       0       0
  4455 ;;      Locals:         0       0       0       0       0
  4456 ;;      Temps:          0       0       0       0       0
  4457 ;;      Totals:         0       0       0       0       0
  4458 ;;Total ram usage:        0 bytes
  4459 ;; Hardware stack levels used: 1
  4460 ;; Hardware stack levels required when called: 1
  4461 ;; This function calls:
  4462 ;;		Nothing
  4463 ;; This function is called by:
  4464 ;;		_init_config
  4465 ;; This function uses a non-reentrant model
  4466 ;;
  4467                           
  4468     0E2C                     _init_timer2:	
  4469                           ;psect for function _init_timer2
  4470                           
  4471     0E2C                     l1572:	
  4472                           ;incstack = 0
  4473                           ; Regs used in _init_timer2: []
  4474                           
  4475                           
  4476                           ;timers.c: 6:     TOUTPS3 = 0;
  4477     0E2C  1283               	bcf	3,5	;RP0=0, select bank0
  4478     0E2D  1303               	bcf	3,6	;RP1=0, select bank0
  4479     0E2E  1312               	bcf	18,6	;volatile
  4480                           
  4481                           ;timers.c: 7:     TOUTPS2 = 0;
  4482     0E2F  1292               	bcf	18,5	;volatile
  4483                           
  4484                           ;timers.c: 8:     TOUTPS1 = 0;
  4485     0E30  1212               	bcf	18,4	;volatile
  4486                           
  4487                           ;timers.c: 9:     TOUTPS0 = 0;
  4488     0E31  1192               	bcf	18,3	;volatile
  4489                           
  4490                           ;timers.c: 11:     TMR2ON = 0;
  4491     0E32  1112               	bcf	18,2	;volatile
  4492                           
  4493                           ;timers.c: 13:     T2CKPS1 = 0;
  4494     0E33  1092               	bcf	18,1	;volatile
  4495                           
  4496                           ;timers.c: 14:     T2CKPS0 = 0;
  4497     0E34  1012               	bcf	18,0	;volatile
  4498                           
  4499                           ;timers.c: 16:     TMR2IE = 1;
  4500     0E35  1683               	bsf	3,5	;RP0=1, select bank1
  4501     0E36  1303               	bcf	3,6	;RP1=0, select bank1
  4502     0E37  148C               	bsf	12,1	;volatile
  4503                           
  4504                           ;timers.c: 18:     TMR2IF = 0;
  4505     0E38  1283               	bcf	3,5	;RP0=0, select bank0
  4506     0E39  1303               	bcf	3,6	;RP1=0, select bank0
  4507     0E3A  108C               	bcf	12,1	;volatile
  4508                           
  4509                           ;timers.c: 20:     PR2 = 250;
  4510     0E3B  30FA               	movlw	250
  4511     0E3C  1683               	bsf	3,5	;RP0=1, select bank1
  4512     0E3D  1303               	bcf	3,6	;RP1=0, select bank1
  4513     0E3E  0092               	movwf	18	;volatile
  4514     0E3F                     l234:
  4515     0E3F  0008               	return
  4516     0E40                     __end_of_init_timer2:
  4517                           
  4518                           	psect	text17
  4519     0DF8                     __ptext17:	
  4520 ;; *************** function _init_matrix_keypad *****************
  4521 ;; Defined at:
  4522 ;;		line 4 in file "matrix_keypad.c"
  4523 ;; Parameters:    Size  Location     Type
  4524 ;;		None
  4525 ;; Auto vars:     Size  Location     Type
  4526 ;;		None
  4527 ;; Return value:  Size  Location     Type
  4528 ;;                  1    wreg      void 
  4529 ;; Registers used:
  4530 ;;		wreg, status,2
  4531 ;; Tracked objects:
  4532 ;;		On entry : 0/0
  4533 ;;		On exit  : 0/0
  4534 ;;		Unchanged: 0/0
  4535 ;; Data sizes:     COMMON   BANK0   BANK1   BANK3   BANK2
  4536 ;;      Params:         0       0       0       0       0
  4537 ;;      Locals:         0       0       0       0       0
  4538 ;;      Temps:          0       0       0       0       0
  4539 ;;      Totals:         0       0       0       0       0
  4540 ;;Total ram usage:        0 bytes
  4541 ;; Hardware stack levels used: 1
  4542 ;; Hardware stack levels required when called: 1
  4543 ;; This function calls:
  4544 ;;		Nothing
  4545 ;; This function is called by:
  4546 ;;		_init_config
  4547 ;; This function uses a non-reentrant model
  4548 ;;
  4549                           
  4550     0DF8                     _init_matrix_keypad:	
  4551                           ;psect for function _init_matrix_keypad
  4552                           
  4553     0DF8                     l1560:	
  4554                           ;incstack = 0
  4555                           ; Regs used in _init_matrix_keypad: [wreg+status,2]
  4556                           
  4557                           
  4558                           ;matrix_keypad.c: 8:     TRISB = TRISB | 0x07;
  4559     0DF8  1683               	bsf	3,5	;RP0=1, select bank1
  4560     0DF9  1303               	bcf	3,6	;RP1=0, select bank1
  4561     0DFA  0806               	movf	6,w	;volatile
  4562     0DFB  3807               	iorlw	7
  4563     0DFC  0086               	movwf	6	;volatile
  4564                           
  4565                           ;matrix_keypad.c: 12:     TRISD = TRISD & 0xF0;
  4566     0DFD  0808               	movf	8,w	;volatile
  4567     0DFE  39F0               	andlw	240
  4568     0DFF  0088               	movwf	8	;volatile
  4569     0E00                     l1562:
  4570                           
  4571                           ;matrix_keypad.c: 15:     nRBPU = 0;
  4572     0E00  1381               	bcf	1,7	;volatile
  4573     0E01                     l1564:
  4574                           
  4575                           ;matrix_keypad.c: 18:     RD3 = 1;
  4576     0E01  1283               	bcf	3,5	;RP0=0, select bank0
  4577     0E02  1303               	bcf	3,6	;RP1=0, select bank0
  4578     0E03  1588               	bsf	8,3	;volatile
  4579     0E04                     l1566:
  4580                           
  4581                           ;matrix_keypad.c: 19:     RD2 = 1;
  4582     0E04  1508               	bsf	8,2	;volatile
  4583     0E05                     l1568:
  4584                           
  4585                           ;matrix_keypad.c: 20:     RD1 = 1;
  4586     0E05  1488               	bsf	8,1	;volatile
  4587     0E06                     l1570:
  4588                           
  4589                           ;matrix_keypad.c: 21:     RD0 = 1;
  4590     0E06  1408               	bsf	8,0	;volatile
  4591     0E07                     l144:
  4592     0E07  0008               	return
  4593     0E08                     __end_of_init_matrix_keypad:
  4594                           
  4595                           	psect	text18
  4596     0DED                     __ptext18:	
  4597 ;; *************** function _init_clcd *****************
  4598 ;; Defined at:
  4599 ;;		line 44 in file "../../Template_Codes/04-CLCD-Sources/4-BitDriver.X/clcd.c"
  4600 ;; Parameters:    Size  Location     Type
  4601 ;;		None
  4602 ;; Auto vars:     Size  Location     Type
  4603 ;;		None
  4604 ;; Return value:  Size  Location     Type
  4605 ;;                  1    wreg      void 
  4606 ;; Registers used:
  4607 ;;		wreg, status,2, status,0, pclath, cstack
  4608 ;; Tracked objects:
  4609 ;;		On entry : 0/0
  4610 ;;		On exit  : 0/0
  4611 ;;		Unchanged: 0/0
  4612 ;; Data sizes:     COMMON   BANK0   BANK1   BANK3   BANK2
  4613 ;;      Params:         0       0       0       0       0
  4614 ;;      Locals:         0       0       0       0       0
  4615 ;;      Temps:          0       0       0       0       0
  4616 ;;      Totals:         0       0       0       0       0
  4617 ;;Total ram usage:        0 bytes
  4618 ;; Hardware stack levels used: 1
  4619 ;; Hardware stack levels required when called: 3
  4620 ;; This function calls:
  4621 ;;		_init_display_controller
  4622 ;; This function is called by:
  4623 ;;		_init_config
  4624 ;; This function uses a non-reentrant model
  4625 ;;
  4626                           
  4627     0DED                     _init_clcd:	
  4628                           ;psect for function _init_clcd
  4629                           
  4630     0DED                     l1542:	
  4631                           ;incstack = 0
  4632                           ; Regs used in _init_clcd: [wreg+status,2+status,0+pclath+cstack]
  4633                           
  4634                           
  4635                           ;../../Template_Codes/04-CLCD-Sources/4-BitDriver.X/clcd.c: 47:     TRISD = 0x00;
  4636     0DED  1683               	bsf	3,5	;RP0=1, select bank1
  4637     0DEE  1303               	bcf	3,6	;RP1=0, select bank1
  4638     0DEF  0188               	clrf	8	;volatile
  4639     0DF0                     l1544:
  4640                           
  4641                           ;../../Template_Codes/04-CLCD-Sources/4-BitDriver.X/clcd.c: 50:     TRISE2 = 0;
  4642     0DF0  1109               	bcf	9,2	;volatile
  4643     0DF1                     l1546:
  4644                           
  4645                           ;../../Template_Codes/04-CLCD-Sources/4-BitDriver.X/clcd.c: 51:     TRISE1 = 0;
  4646     0DF1  1089               	bcf	9,1	;volatile
  4647     0DF2                     l1548:
  4648                           
  4649                           ;../../Template_Codes/04-CLCD-Sources/4-BitDriver.X/clcd.c: 53:     init_display_control
      +                          ler();
  4650     0DF2  120A  118A  2420  120A  158A  	fcall	_init_display_controller
  4651     0DF7                     l23:
  4652     0DF7  0008               	return
  4653     0DF8                     __end_of_init_clcd:
  4654                           
  4655                           	psect	text19
  4656     0420                     __ptext19:	
  4657 ;; *************** function _init_display_controller *****************
  4658 ;; Defined at:
  4659 ;;		line 21 in file "../../Template_Codes/04-CLCD-Sources/4-BitDriver.X/clcd.c"
  4660 ;; Parameters:    Size  Location     Type
  4661 ;;		None
  4662 ;; Auto vars:     Size  Location     Type
  4663 ;;		None
  4664 ;; Return value:  Size  Location     Type
  4665 ;;                  1    wreg      void 
  4666 ;; Registers used:
  4667 ;;		wreg, status,2, status,0, pclath, cstack
  4668 ;; Tracked objects:
  4669 ;;		On entry : 0/0
  4670 ;;		On exit  : 0/0
  4671 ;;		Unchanged: 0/0
  4672 ;; Data sizes:     COMMON   BANK0   BANK1   BANK3   BANK2
  4673 ;;      Params:         0       0       0       0       0
  4674 ;;      Locals:         0       0       0       0       0
  4675 ;;      Temps:          2       0       0       0       0
  4676 ;;      Totals:         2       0       0       0       0
  4677 ;;Total ram usage:        2 bytes
  4678 ;; Hardware stack levels used: 1
  4679 ;; Hardware stack levels required when called: 2
  4680 ;; This function calls:
  4681 ;;		_clcd_write
  4682 ;; This function is called by:
  4683 ;;		_init_clcd
  4684 ;; This function uses a non-reentrant model
  4685 ;;
  4686                           
  4687     0420                     _init_display_controller:	
  4688                           ;psect for function _init_display_controller
  4689                           
  4690     0420                     l1518:	
  4691                           ;incstack = 0
  4692                           ; Regs used in _init_display_controller: [wreg+status,2+status,0+pclath+cstack]
  4693                           
  4694                           
  4695                           ;../../Template_Codes/04-CLCD-Sources/4-BitDriver.X/clcd.c: 24:     _delay((unsigned lon
      +                          g)((30)*(20000000/4000.0)));
  4696     0420  30C3               	movlw	195
  4697     0421  00F7               	movwf	??_init_display_controller+1
  4698     0422  30CD               	movlw	205
  4699     0423  00F6               	movwf	??_init_display_controller
  4700     0424                     u2947:
  4701     0424  0BF6               	decfsz	??_init_display_controller,f
  4702     0425  2C24               	goto	u2947
  4703     0426  0BF7               	decfsz	??_init_display_controller+1,f
  4704     0427  2C24               	goto	u2947
  4705     0428                     l1520:
  4706                           
  4707                           ;../../Template_Codes/04-CLCD-Sources/4-BitDriver.X/clcd.c: 27:     clcd_write(0x33, 0);
  4708     0428  01F2               	clrf	clcd_write@mode
  4709     0429  3033               	movlw	51
  4710     042A  120A  158A  26C4  120A  118A  	fcall	_clcd_write
  4711     042F                     l1522:
  4712                           
  4713                           ;../../Template_Codes/04-CLCD-Sources/4-BitDriver.X/clcd.c: 28:     _delay((unsigned lon
      +                          g)((4100)*(20000000/4000000.0)));
  4714     042F  301B               	movlw	27
  4715     0430  00F7               	movwf	??_init_display_controller+1
  4716     0431  309E               	movlw	158
  4717     0432  00F6               	movwf	??_init_display_controller
  4718     0433                     u2957:
  4719     0433  0BF6               	decfsz	??_init_display_controller,f
  4720     0434  2C33               	goto	u2957
  4721     0435  0BF7               	decfsz	??_init_display_controller+1,f
  4722     0436  2C33               	goto	u2957
  4723     0437  0000               	nop
  4724                           
  4725                           ;../../Template_Codes/04-CLCD-Sources/4-BitDriver.X/clcd.c: 29:     clcd_write(0x33, 0);
  4726     0438  01F2               	clrf	clcd_write@mode
  4727     0439  3033               	movlw	51
  4728     043A  120A  158A  26C4  120A  118A  	fcall	_clcd_write
  4729     043F                     l1524:
  4730                           
  4731                           ;../../Template_Codes/04-CLCD-Sources/4-BitDriver.X/clcd.c: 30:     _delay((unsigned lon
      +                          g)((100)*(20000000/4000000.0)));
  4732     043F  30A6               	movlw	166
  4733     0440  00F6               	movwf	??_init_display_controller
  4734     0441                     u2967:
  4735     0441  0BF6               	decfsz	??_init_display_controller,f
  4736     0442  2C41               	goto	u2967
  4737     0443  0000               	nop
  4738     0444                     l1526:
  4739                           
  4740                           ;../../Template_Codes/04-CLCD-Sources/4-BitDriver.X/clcd.c: 31:     clcd_write(0x33, 0);
  4741     0444  01F2               	clrf	clcd_write@mode
  4742     0445  3033               	movlw	51
  4743     0446  120A  158A  26C4  120A  118A  	fcall	_clcd_write
  4744     044B                     l1528:
  4745                           
  4746                           ;../../Template_Codes/04-CLCD-Sources/4-BitDriver.X/clcd.c: 32:     _delay((unsigned lon
      +                          g)((1)*(20000000/4000000.0)));
  4747     044B  2C4C               	nop2	;2 cycle nop
  4748     044C  2C4D               	nop2	;2 cycle nop
  4749     044D  0000               	nop
  4750     044E                     l1530:
  4751                           
  4752                           ;../../Template_Codes/04-CLCD-Sources/4-BitDriver.X/clcd.c: 34:     clcd_write(0x02, 0);
  4753     044E  01F2               	clrf	clcd_write@mode
  4754     044F  3002               	movlw	2
  4755     0450  120A  158A  26C4  120A  118A  	fcall	_clcd_write
  4756     0455                     l1532:
  4757                           
  4758                           ;../../Template_Codes/04-CLCD-Sources/4-BitDriver.X/clcd.c: 35:     _delay((unsigned lon
      +                          g)((100)*(20000000/4000000.0)));
  4759     0455  30A6               	movlw	166
  4760     0456  00F6               	movwf	??_init_display_controller
  4761     0457                     u2977:
  4762     0457  0BF6               	decfsz	??_init_display_controller,f
  4763     0458  2C57               	goto	u2977
  4764     0459  0000               	nop
  4765                           
  4766                           ;../../Template_Codes/04-CLCD-Sources/4-BitDriver.X/clcd.c: 36:     clcd_write(0x28, 0);
  4767     045A  01F2               	clrf	clcd_write@mode
  4768     045B  3028               	movlw	40
  4769     045C  120A  158A  26C4  120A  118A  	fcall	_clcd_write
  4770     0461                     l1534:
  4771                           
  4772                           ;../../Template_Codes/04-CLCD-Sources/4-BitDriver.X/clcd.c: 37:     _delay((unsigned lon
      +                          g)((100)*(20000000/4000000.0)));
  4773     0461  30A6               	movlw	166
  4774     0462  00F6               	movwf	??_init_display_controller
  4775     0463                     u2987:
  4776     0463  0BF6               	decfsz	??_init_display_controller,f
  4777     0464  2C63               	goto	u2987
  4778     0465  0000               	nop
  4779     0466                     l1536:
  4780                           
  4781                           ;../../Template_Codes/04-CLCD-Sources/4-BitDriver.X/clcd.c: 38:     clcd_write(0x01, 0);
  4782     0466  01F2               	clrf	clcd_write@mode
  4783     0467  3001               	movlw	1
  4784     0468  120A  158A  26C4  120A  118A  	fcall	_clcd_write
  4785                           
  4786                           ;../../Template_Codes/04-CLCD-Sources/4-BitDriver.X/clcd.c: 39:     _delay((unsigned lon
      +                          g)((500)*(20000000/4000000.0)));
  4787     046D  3004               	movlw	4
  4788     046E  00F7               	movwf	??_init_display_controller+1
  4789     046F  303D               	movlw	61
  4790     0470  00F6               	movwf	??_init_display_controller
  4791     0471                     u2997:
  4792     0471  0BF6               	decfsz	??_init_display_controller,f
  4793     0472  2C71               	goto	u2997
  4794     0473  0BF7               	decfsz	??_init_display_controller+1,f
  4795     0474  2C71               	goto	u2997
  4796     0475  2C76               	nop2
  4797     0476                     l1538:
  4798                           
  4799                           ;../../Template_Codes/04-CLCD-Sources/4-BitDriver.X/clcd.c: 40:     clcd_write(0x0C, 0);
  4800     0476  01F2               	clrf	clcd_write@mode
  4801     0477  300C               	movlw	12
  4802     0478  120A  158A  26C4  120A  118A  	fcall	_clcd_write
  4803     047D                     l1540:
  4804                           
  4805                           ;../../Template_Codes/04-CLCD-Sources/4-BitDriver.X/clcd.c: 41:     _delay((unsigned lon
      +                          g)((100)*(20000000/4000000.0)));
  4806     047D  30A6               	movlw	166
  4807     047E  00F6               	movwf	??_init_display_controller
  4808     047F                     u3007:
  4809     047F  0BF6               	decfsz	??_init_display_controller,f
  4810     0480  2C7F               	goto	u3007
  4811     0481  0000               	nop
  4812     0482                     l20:
  4813     0482  0008               	return
  4814     0483                     __end_of_init_display_controller:
  4815                           
  4816                           	psect	text20
  4817     0DE3                     __ptext20:	
  4818 ;; *************** function _heat_food *****************
  4819 ;; Defined at:
  4820 ;;		line 201 in file "microoven.c"
  4821 ;; Parameters:    Size  Location     Type
  4822 ;;		None
  4823 ;; Auto vars:     Size  Location     Type
  4824 ;;		None
  4825 ;; Return value:  Size  Location     Type
  4826 ;;                  1    wreg      void 
  4827 ;; Registers used:
  4828 ;;		status,2
  4829 ;; Tracked objects:
  4830 ;;		On entry : 0/0
  4831 ;;		On exit  : 0/0
  4832 ;;		Unchanged: 0/0
  4833 ;; Data sizes:     COMMON   BANK0   BANK1   BANK3   BANK2
  4834 ;;      Params:         0       0       0       0       0
  4835 ;;      Locals:         0       0       0       0       0
  4836 ;;      Temps:          0       0       0       0       0
  4837 ;;      Totals:         0       0       0       0       0
  4838 ;;Total ram usage:        0 bytes
  4839 ;; Hardware stack levels used: 1
  4840 ;; Hardware stack levels required when called: 1
  4841 ;; This function calls:
  4842 ;;		Nothing
  4843 ;; This function is called by:
  4844 ;;		_main
  4845 ;; This function uses a non-reentrant model
  4846 ;;
  4847                           
  4848     0DE3                     _heat_food:	
  4849                           ;psect for function _heat_food
  4850                           
  4851     0DE3                     l2016:	
  4852                           ;incstack = 0
  4853                           ; Regs used in _heat_food: [status,2]
  4854                           
  4855                           
  4856                           ;microoven.c: 203:     sec = 30;
  4857     0DE3  301E               	movlw	30
  4858     0DE4  1283               	bcf	3,5	;RP0=0, select bank0
  4859     0DE5  1303               	bcf	3,6	;RP1=0, select bank0
  4860     0DE6  00BC               	movwf	_sec
  4861     0DE7                     l2018:
  4862                           
  4863                           ;microoven.c: 204:     min = 0;
  4864     0DE7  01BB               	clrf	_min
  4865     0DE8                     l2020:
  4866                           
  4867                           ;microoven.c: 205:     RC2 = 1;
  4868     0DE8  1507               	bsf	7,2	;volatile
  4869     0DE9                     l2022:
  4870                           
  4871                           ;microoven.c: 206:     TMR2ON = 1;
  4872     0DE9  1512               	bsf	18,2	;volatile
  4873     0DEA                     l2024:
  4874                           
  4875                           ;microoven.c: 207:     operational_flag = 0xDD;
  4876     0DEA  30DD               	movlw	221
  4877     0DEB  00BD               	movwf	_operational_flag
  4878     0DEC                     l320:
  4879     0DEC  0008               	return
  4880     0DED                     __end_of_heat_food:
  4881                           
  4882                           	psect	text21
  4883     0E7A                     __ptext21:	
  4884 ;; *************** function _display_menu_screen *****************
  4885 ;; Defined at:
  4886 ;;		line 33 in file "microoven.c"
  4887 ;; Parameters:    Size  Location     Type
  4888 ;;		None
  4889 ;; Auto vars:     Size  Location     Type
  4890 ;;		None
  4891 ;; Return value:  Size  Location     Type
  4892 ;;                  1    wreg      void 
  4893 ;; Registers used:
  4894 ;;		wreg, fsr0l, fsr0h, status,2, status,0, pclath, cstack
  4895 ;; Tracked objects:
  4896 ;;		On entry : 0/0
  4897 ;;		On exit  : 0/0
  4898 ;;		Unchanged: 0/0
  4899 ;; Data sizes:     COMMON   BANK0   BANK1   BANK3   BANK2
  4900 ;;      Params:         0       0       0       0       0
  4901 ;;      Locals:         0       0       0       0       0
  4902 ;;      Temps:          0       0       0       0       0
  4903 ;;      Totals:         0       0       0       0       0
  4904 ;;Total ram usage:        0 bytes
  4905 ;; Hardware stack levels used: 1
  4906 ;; Hardware stack levels required when called: 2
  4907 ;; This function calls:
  4908 ;;		_clcd_print
  4909 ;; This function is called by:
  4910 ;;		_main
  4911 ;; This function uses a non-reentrant model
  4912 ;;
  4913                           
  4914     0E7A                     _display_menu_screen:	
  4915                           ;psect for function _display_menu_screen
  4916                           
  4917     0E7A                     l1838:	
  4918                           ;incstack = 0
  4919                           ; Regs used in _display_menu_screen: [wreg-fsr0h+status,2+status,0+pclath+cstack]
  4920                           
  4921                           
  4922                           ;microoven.c: 35:     clcd_print("1.Micro",(0x80 + 0));
  4923     0E7A  30BE               	movlw	(low ((STR_4-__stringbase)| (0+32768)))& (0+255)
  4924     0E7B  00F6               	movwf	clcd_print@str
  4925     0E7C  3080               	movlw	128
  4926     0E7D  00F7               	movwf	clcd_print@addr
  4927     0E7E  120A  158A  2655  120A  158A  	fcall	_clcd_print
  4928                           
  4929                           ;microoven.c: 36:     clcd_print("2.Grill",(0xC0 + 0));
  4930     0E83  30B6               	movlw	(low ((STR_5-__stringbase)| (0+32768)))& (0+255)
  4931     0E84  00F6               	movwf	clcd_print@str
  4932     0E85  30C0               	movlw	192
  4933     0E86  00F7               	movwf	clcd_print@addr
  4934     0E87  120A  158A  2655  120A  158A  	fcall	_clcd_print
  4935                           
  4936                           ;microoven.c: 37:     clcd_print("3.Convention",(0x90 + 0));
  4937     0E8C  3062               	movlw	(low ((STR_6-__stringbase)| (0+32768)))& (0+255)
  4938     0E8D  00F6               	movwf	clcd_print@str
  4939     0E8E  3090               	movlw	144
  4940     0E8F  00F7               	movwf	clcd_print@addr
  4941     0E90  120A  158A  2655  120A  158A  	fcall	_clcd_print
  4942                           
  4943                           ;microoven.c: 38:     clcd_print("4.Start",(0xD0 + 0));
  4944     0E95  30C6               	movlw	(low ((STR_7-__stringbase)| (0+32768)))& (0+255)
  4945     0E96  00F6               	movwf	clcd_print@str
  4946     0E97  30D0               	movlw	208
  4947     0E98  00F7               	movwf	clcd_print@addr
  4948     0E99  120A  158A  2655  120A  158A  	fcall	_clcd_print
  4949     0E9E                     l269:
  4950     0E9E  0008               	return
  4951     0E9F                     __end_of_display_menu_screen:
  4952                           
  4953                           	psect	text22
  4954     0E55                     __ptext22:	
  4955 ;; *************** function _clcd_print *****************
  4956 ;; Defined at:
  4957 ;;		line 62 in file "../../Template_Codes/04-CLCD-Sources/4-BitDriver.X/clcd.c"
  4958 ;; Parameters:    Size  Location     Type
  4959 ;;  str             1    6[COMMON] PTR const unsigned char 
  4960 ;;		 -> STR_22(5), STR_21(11), STR_20(12), STR_19(17), 
  4961 ;;		 -> STR_18(7), STR_17(17), STR_16(16), STR_15(8), 
  4962 ;;		 -> STR_14(7), STR_13(8), STR_12(15), STR_11(8), 
  4963 ;;		 -> STR_10(17), STR_9(7), STR_8(17), STR_7(8), 
  4964 ;;		 -> STR_6(13), STR_5(8), STR_4(8), STR_3(15), 
  4965 ;;		 -> STR_2(12), STR_1(12), 
  4966 ;;  addr            1    7[COMMON] unsigned char 
  4967 ;; Auto vars:     Size  Location     Type
  4968 ;;		None
  4969 ;; Return value:  Size  Location     Type
  4970 ;;                  1    wreg      void 
  4971 ;; Registers used:
  4972 ;;		wreg, fsr0l, fsr0h, status,2, status,0, pclath, cstack
  4973 ;; Tracked objects:
  4974 ;;		On entry : 0/0
  4975 ;;		On exit  : 0/0
  4976 ;;		Unchanged: 0/0
  4977 ;; Data sizes:     COMMON   BANK0   BANK1   BANK3   BANK2
  4978 ;;      Params:         2       0       0       0       0
  4979 ;;      Locals:         0       0       0       0       0
  4980 ;;      Temps:          0       0       0       0       0
  4981 ;;      Totals:         2       0       0       0       0
  4982 ;;Total ram usage:        2 bytes
  4983 ;; Hardware stack levels used: 1
  4984 ;; Hardware stack levels required when called: 1
  4985 ;; This function calls:
  4986 ;;		_clcd_write
  4987 ;; This function is called by:
  4988 ;;		_main
  4989 ;;		_power_on_screen
  4990 ;;		_display_menu_screen
  4991 ;;		_set_time
  4992 ;;		_time_display
  4993 ;;		_set_temp
  4994 ;; This function uses a non-reentrant model
  4995 ;;
  4996                           
  4997     0E55                     _clcd_print:	
  4998                           ;psect for function _clcd_print
  4999                           
  5000     0E55                     l1552:	
  5001                           ;incstack = 0
  5002                           ; Regs used in _clcd_print: [wreg-fsr0h+status,2+status,0+pclath+cstack]
  5003                           
  5004                           
  5005                           ;../../Template_Codes/04-CLCD-Sources/4-BitDriver.X/clcd.c: 62: void clcd_print(const ch
      +                          ar *str, unsigned char addr);../../Template_Codes/04-CLCD-Sources/4-BitDriver.X/clcd.c: 
      +                          63: {;../../Template_Codes/04-CLCD-Sources/4-BitDriver.X/clcd.c: 64:     clcd_write(addr
      +                          , 0);
  5006     0E55  01F2               	clrf	clcd_write@mode
  5007     0E56  0877               	movf	clcd_print@addr,w
  5008     0E57  120A  158A  26C4  120A  158A  	fcall	_clcd_write
  5009                           
  5010                           ;../../Template_Codes/04-CLCD-Sources/4-BitDriver.X/clcd.c: 66:     while (*str != '\0')
  5011     0E5C  2E6D               	goto	l1558
  5012     0E5D                     l1554:
  5013                           
  5014                           ;../../Template_Codes/04-CLCD-Sources/4-BitDriver.X/clcd.c: 67:     {;../../Template_Cod
      +                          es/04-CLCD-Sources/4-BitDriver.X/clcd.c: 68:         clcd_write(*str, 1);
  5015     0E5D  01F2               	clrf	clcd_write@mode
  5016     0E5E  0AF2               	incf	clcd_write@mode,f
  5017     0E5F  0876               	movf	clcd_print@str,w
  5018     0E60  0084               	movwf	4
  5019     0E61  120A  118A  2500  120A  158A  	fcall	stringdir
  5020     0E66  120A  158A  26C4  120A  158A  	fcall	_clcd_write
  5021     0E6B                     l1556:
  5022                           
  5023                           ;../../Template_Codes/04-CLCD-Sources/4-BitDriver.X/clcd.c: 69:         str++;
  5024     0E6B  3001               	movlw	1
  5025     0E6C  07F6               	addwf	clcd_print@str,f
  5026     0E6D                     l1558:
  5027                           
  5028                           ;../../Template_Codes/04-CLCD-Sources/4-BitDriver.X/clcd.c: 66:     while (*str != '\0')
  5029     0E6D  0876               	movf	clcd_print@str,w
  5030     0E6E  0084               	movwf	4
  5031     0E6F  120A  118A  2500  120A  158A  	fcall	stringdir
  5032     0E74  3A00               	xorlw	0
  5033     0E75  1D03               	skipz
  5034     0E76  2E78               	goto	u901
  5035     0E77  2E79               	goto	u900
  5036     0E78                     u901:
  5037     0E78  2E5D               	goto	l1554
  5038     0E79                     u900:
  5039     0E79                     l32:
  5040     0E79  0008               	return
  5041     0E7A                     __end_of_clcd_print:
  5042                           
  5043                           	psect	text23
  5044     0EC4                     __ptext23:	
  5045 ;; *************** function _clcd_write *****************
  5046 ;; Defined at:
  5047 ;;		line 4 in file "../../Template_Codes/04-CLCD-Sources/4-BitDriver.X/clcd.c"
  5048 ;; Parameters:    Size  Location     Type
  5049 ;;  byte            1    wreg     unsigned char 
  5050 ;;  mode            1    2[COMMON] unsigned char 
  5051 ;; Auto vars:     Size  Location     Type
  5052 ;;  byte            1    5[COMMON] unsigned char 
  5053 ;; Return value:  Size  Location     Type
  5054 ;;                  1    wreg      void 
  5055 ;; Registers used:
  5056 ;;		wreg, status,2, status,0
  5057 ;; Tracked objects:
  5058 ;;		On entry : 0/0
  5059 ;;		On exit  : 0/0
  5060 ;;		Unchanged: 0/0
  5061 ;; Data sizes:     COMMON   BANK0   BANK1   BANK3   BANK2
  5062 ;;      Params:         1       0       0       0       0
  5063 ;;      Locals:         1       0       0       0       0
  5064 ;;      Temps:          2       0       0       0       0
  5065 ;;      Totals:         4       0       0       0       0
  5066 ;;Total ram usage:        4 bytes
  5067 ;; Hardware stack levels used: 1
  5068 ;; Hardware stack levels required when called: 1
  5069 ;; This function calls:
  5070 ;;		Nothing
  5071 ;; This function is called by:
  5072 ;;		_init_display_controller
  5073 ;;		_clcd_putch
  5074 ;;		_clcd_print
  5075 ;;		_clear_screen
  5076 ;; This function uses a non-reentrant model
  5077 ;;
  5078                           
  5079     0EC4                     _clcd_write:	
  5080                           ;psect for function _clcd_write
  5081                           
  5082                           
  5083                           ;incstack = 0
  5084                           ; Regs used in _clcd_write: [wreg+status,2+status,0]
  5085                           ;clcd_write@byte stored from wreg
  5086     0EC4  00F5               	movwf	clcd_write@byte
  5087     0EC5                     l1498:
  5088                           
  5089                           ;../../Template_Codes/04-CLCD-Sources/4-BitDriver.X/clcd.c: 4:  void clcd_write(unsigned
      +                           char byte, unsigned char mode);../../Template_Codes/04-CLCD-Sources/4-BitDriver.X/clcd.
      +                          c: 5: {;../../Template_Codes/04-CLCD-Sources/4-BitDriver.X/clcd.c: 6:     RE2 = (__bit)m
      +                          ode;
  5090     0EC5  1872               	btfsc	clcd_write@mode,0
  5091     0EC6  2EC8               	goto	u871
  5092     0EC7  2ECC               	goto	u870
  5093     0EC8                     u871:
  5094     0EC8  1283               	bcf	3,5	;RP0=0, select bank0
  5095     0EC9  1303               	bcf	3,6	;RP1=0, select bank0
  5096     0ECA  1509               	bsf	9,2	;volatile
  5097     0ECB  2ECF               	goto	u884
  5098     0ECC                     u870:
  5099     0ECC  1283               	bcf	3,5	;RP0=0, select bank0
  5100     0ECD  1303               	bcf	3,6	;RP1=0, select bank0
  5101     0ECE  1109               	bcf	9,2	;volatile
  5102     0ECF                     u884:
  5103     0ECF                     l1500:
  5104                           
  5105                           ;../../Template_Codes/04-CLCD-Sources/4-BitDriver.X/clcd.c: 8:     PORTD = byte & 0xF0;
  5106     0ECF  0875               	movf	clcd_write@byte,w
  5107     0ED0  39F0               	andlw	240
  5108     0ED1  0088               	movwf	8	;volatile
  5109     0ED2                     l1502:
  5110                           
  5111                           ;../../Template_Codes/04-CLCD-Sources/4-BitDriver.X/clcd.c: 9:     RE1 = 1;
  5112     0ED2  1489               	bsf	9,1	;volatile
  5113     0ED3                     l1504:
  5114                           
  5115                           ;../../Template_Codes/04-CLCD-Sources/4-BitDriver.X/clcd.c: 10:     _delay((unsigned lon
      +                          g)((100)*(20000000/4000000.0)));
  5116     0ED3  30A6               	movlw	166
  5117     0ED4  00F3               	movwf	??_clcd_write
  5118     0ED5                     u3017:
  5119     0ED5  0BF3               	decfsz	??_clcd_write,f
  5120     0ED6  2ED5               	goto	u3017
  5121     0ED7  0000               	nop
  5122     0ED8                     l1506:
  5123                           
  5124                           ;../../Template_Codes/04-CLCD-Sources/4-BitDriver.X/clcd.c: 11:     RE1 = 0;
  5125     0ED8  1283               	bcf	3,5	;RP0=0, select bank0
  5126     0ED9  1303               	bcf	3,6	;RP1=0, select bank0
  5127     0EDA  1089               	bcf	9,1	;volatile
  5128     0EDB                     l1508:
  5129                           
  5130                           ;../../Template_Codes/04-CLCD-Sources/4-BitDriver.X/clcd.c: 13:     PORTD = (unsigned ch
      +                          ar)((byte & 0x0F) << 4);
  5131     0EDB  0875               	movf	clcd_write@byte,w
  5132     0EDC  390F               	andlw	15
  5133     0EDD  00F3               	movwf	??_clcd_write
  5134     0EDE  3003               	movlw	3
  5135     0EDF                     u895:
  5136     0EDF  1003               	clrc
  5137     0EE0  0DF3               	rlf	??_clcd_write,f
  5138     0EE1  3EFF               	addlw	-1
  5139     0EE2  1D03               	skipz
  5140     0EE3  2EDF               	goto	u895
  5141     0EE4  1003               	clrc
  5142     0EE5  0D73               	rlf	??_clcd_write,w
  5143     0EE6  0088               	movwf	8	;volatile
  5144     0EE7                     l1510:
  5145                           
  5146                           ;../../Template_Codes/04-CLCD-Sources/4-BitDriver.X/clcd.c: 14:     RE1 = 1;
  5147     0EE7  1489               	bsf	9,1	;volatile
  5148     0EE8                     l1512:
  5149                           
  5150                           ;../../Template_Codes/04-CLCD-Sources/4-BitDriver.X/clcd.c: 15:     _delay((unsigned lon
      +                          g)((100)*(20000000/4000000.0)));
  5151     0EE8  30A6               	movlw	166
  5152     0EE9  00F3               	movwf	??_clcd_write
  5153     0EEA                     u3027:
  5154     0EEA  0BF3               	decfsz	??_clcd_write,f
  5155     0EEB  2EEA               	goto	u3027
  5156     0EEC  0000               	nop
  5157     0EED                     l1514:
  5158                           
  5159                           ;../../Template_Codes/04-CLCD-Sources/4-BitDriver.X/clcd.c: 16:     RE1 = 0;
  5160     0EED  1283               	bcf	3,5	;RP0=0, select bank0
  5161     0EEE  1303               	bcf	3,6	;RP1=0, select bank0
  5162     0EEF  1089               	bcf	9,1	;volatile
  5163     0EF0                     l1516:
  5164                           
  5165                           ;../../Template_Codes/04-CLCD-Sources/4-BitDriver.X/clcd.c: 18:     _delay((unsigned lon
      +                          g)((4100)*(20000000/4000000.0)));
  5166     0EF0  301B               	movlw	27
  5167     0EF1  00F4               	movwf	??_clcd_write+1
  5168     0EF2  309E               	movlw	158
  5169     0EF3  00F3               	movwf	??_clcd_write
  5170     0EF4                     u3037:
  5171     0EF4  0BF3               	decfsz	??_clcd_write,f
  5172     0EF5  2EF4               	goto	u3037
  5173     0EF6  0BF4               	decfsz	??_clcd_write+1,f
  5174     0EF7  2EF4               	goto	u3037
  5175     0EF8  0000               	nop
  5176     0EF9                     l17:
  5177     0EF9  0008               	return
  5178     0EFA                     __end_of_clcd_write:
  5179                           
  5180                           	psect	text24
  5181     0F34                     __ptext24:	
  5182 ;; *************** function _isr *****************
  5183 ;; Defined at:
  5184 ;;		line 7 in file "isr.c"
  5185 ;; Parameters:    Size  Location     Type
  5186 ;;		None
  5187 ;; Auto vars:     Size  Location     Type
  5188 ;;		None
  5189 ;; Return value:  Size  Location     Type
  5190 ;;                  1    wreg      void 
  5191 ;; Registers used:
  5192 ;;		wreg, status,2, status,0
  5193 ;; Tracked objects:
  5194 ;;		On entry : 0/0
  5195 ;;		On exit  : 0/0
  5196 ;;		Unchanged: 0/0
  5197 ;; Data sizes:     COMMON   BANK0   BANK1   BANK3   BANK2
  5198 ;;      Params:         0       0       0       0       0
  5199 ;;      Locals:         0       0       0       0       0
  5200 ;;      Temps:          2       0       0       0       0
  5201 ;;      Totals:         2       0       0       0       0
  5202 ;;Total ram usage:        2 bytes
  5203 ;; Hardware stack levels used: 1
  5204 ;; This function calls:
  5205 ;;		Nothing
  5206 ;; This function is called by:
  5207 ;;		Interrupt level 1
  5208 ;; This function uses a non-reentrant model
  5209 ;;
  5210                           
  5211     0F34                     _isr:	
  5212                           ;psect for function _isr
  5213                           
  5214     0F34                     i1l2134:
  5215                           
  5216                           ;isr.c: 9:     if(TMR2IF)
  5217     0F34  1283               	bcf	3,5	;RP0=0, select bank0
  5218     0F35  1303               	bcf	3,6	;RP1=0, select bank0
  5219     0F36  1C8C               	btfss	12,1	;volatile
  5220     0F37  2F39               	goto	u175_21
  5221     0F38  2F3A               	goto	u175_20
  5222     0F39                     u175_21:
  5223     0F39  2F6A               	goto	i1l211
  5224     0F3A                     u175_20:
  5225     0F3A                     i1l2136:
  5226                           
  5227                           ;isr.c: 10:     {;isr.c: 11:         if(++count == 20000)
  5228     0F3A  3001               	movlw	1
  5229     0F3B  07F9               	addwf	_count,f
  5230     0F3C  1803               	skipnc
  5231     0F3D  0AFA               	incf	_count+1,f
  5232     0F3E  3000               	movlw	0
  5233     0F3F  07FA               	addwf	_count+1,f
  5234     0F40  3020               	movlw	32
  5235     0F41  0679               	xorwf	_count,w
  5236     0F42  304E               	movlw	78
  5237     0F43  1903               	skipnz
  5238     0F44  067A               	xorwf	_count+1,w
  5239     0F45  1D03               	btfss	3,2
  5240     0F46  2F48               	goto	u176_21
  5241     0F47  2F49               	goto	u176_20
  5242     0F48                     u176_21:
  5243     0F48  2F69               	goto	i1l2156
  5244     0F49                     u176_20:
  5245     0F49                     i1l2138:
  5246                           
  5247                           ;isr.c: 12:         {;isr.c: 13:             count = 0;
  5248     0F49  01F9               	clrf	_count
  5249     0F4A  01FA               	clrf	_count+1
  5250     0F4B                     i1l2140:
  5251                           
  5252                           ;isr.c: 14:             if(sec != 0){
  5253     0F4B  083C               	movf	_sec,w
  5254     0F4C  1903               	btfsc	3,2
  5255     0F4D  2F4F               	goto	u177_21
  5256     0F4E  2F50               	goto	u177_20
  5257     0F4F                     u177_21:
  5258     0F4F  2F53               	goto	i1l2144
  5259     0F50                     u177_20:
  5260     0F50                     i1l2142:
  5261                           
  5262                           ;isr.c: 15:                 sec--;
  5263     0F50  3001               	movlw	1
  5264     0F51  02BC               	subwf	_sec,f
  5265                           
  5266                           ;isr.c: 16:             }
  5267     0F52  2F69               	goto	i1l2156
  5268     0F53                     i1l2144:
  5269     0F53  083C               	movf	_sec,w
  5270     0F54  1D03               	btfss	3,2
  5271     0F55  2F57               	goto	u178_21
  5272     0F56  2F58               	goto	u178_20
  5273     0F57                     u178_21:
  5274     0F57  2F62               	goto	i1l2152
  5275     0F58                     u178_20:
  5276     0F58                     i1l2146:
  5277     0F58  083B               	movf	_min,w
  5278     0F59  1903               	btfsc	3,2
  5279     0F5A  2F5C               	goto	u179_21
  5280     0F5B  2F5D               	goto	u179_20
  5281     0F5C                     u179_21:
  5282     0F5C  2F62               	goto	i1l2152
  5283     0F5D                     u179_20:
  5284     0F5D                     i1l2148:
  5285                           
  5286                           ;isr.c: 18:             {;isr.c: 19:                 min --;
  5287     0F5D  3001               	movlw	1
  5288     0F5E  02BB               	subwf	_min,f
  5289     0F5F                     i1l2150:
  5290                           
  5291                           ;isr.c: 20:                 sec = 59;
  5292     0F5F  303B               	movlw	59
  5293     0F60  00BC               	movwf	_sec
  5294                           
  5295                           ;isr.c: 21:             }
  5296     0F61  2F69               	goto	i1l2156
  5297     0F62                     i1l2152:
  5298     0F62  0839               	movf	_pre_heat_time,w
  5299     0F63  1903               	btfsc	3,2
  5300     0F64  2F66               	goto	u180_21
  5301     0F65  2F67               	goto	u180_20
  5302     0F66                     u180_21:
  5303     0F66  2F69               	goto	i1l2156
  5304     0F67                     u180_20:
  5305     0F67                     i1l2154:
  5306                           
  5307                           ;isr.c: 23:             {;isr.c: 24:                 pre_heat_time--;
  5308     0F67  3001               	movlw	1
  5309     0F68  02B9               	subwf	_pre_heat_time,f
  5310     0F69                     i1l2156:
  5311                           
  5312                           ;isr.c: 27:         TMR2IF = 0;
  5313     0F69  108C               	bcf	12,1	;volatile
  5314     0F6A                     i1l211:
  5315     0F6A  0871               	movf	??_isr+1,w
  5316     0F6B  008A               	movwf	10
  5317     0F6C  0E70               	swapf	??_isr,w
  5318     0F6D  0083               	movwf	3
  5319     0F6E  0EFE               	swapf	btemp,f
  5320     0F6F  0E7E               	swapf	btemp,w
  5321     0F70  0009               	retfie
  5322     0F71                     __end_of_isr:
  5323     0002                     ___latbits      equ	2
  5324     007E                     btemp           set	126	;btemp
  5325     007E                     btemp0          set	126
  5326     007F                     btemp1          set	127
  5327     007E                     wtemp0          set	126
  5328     007F                     wtemp0a         set	127
  5329     007F                     ttemp0a         set	127
  5330     0080                     ltemp0a         set	128
  5331                           
  5332                           	psect	intentry
  5333     0004                     __pintentry:	
  5334                           ;incstack = 0
  5335                           ; Regs used in _isr: [wreg+status,2+status,0]
  5336                           
  5337     0004                     interrupt_function:
  5338     007E                     saved_w         set	btemp
  5339     0004  00FE               	movwf	btemp
  5340     0005  0E03               	swapf	3,w
  5341     0006  00F0               	movwf	??_isr
  5342     0007  080A               	movf	10,w
  5343     0008  00F1               	movwf	??_isr+1
  5344     0009  120A  158A  2F34   	ljmp	_isr
  5345                           
  5346                           	psect	config
  5347                           
  5348                           ;Config register CONFIG @ 0x2007
  5349                           ;	Oscillator Selection bits
  5350                           ;	FOSC = 0x3, unprogrammed default
  5351                           ;	Watchdog Timer Enable bit
  5352                           ;	WDTE = OFF, WDT disabled
  5353                           ;	Power-up Timer Enable bit
  5354                           ;	PWRTE = 0x1, unprogrammed default
  5355                           ;	Brown-out Reset Enable bit
  5356                           ;	BOREN = 0x1, unprogrammed default
  5357                           ;	Low-Voltage (Single-Supply) In-Circuit Serial Programming Enable bit
  5358                           ;	LVP = 0x1, unprogrammed default
  5359                           ;	Data EEPROM Memory Code Protection bit
  5360                           ;	CPD = 0x1, unprogrammed default
  5361                           ;	Flash Program Memory Write Enable bits
  5362                           ;	WRT = 0x3, unprogrammed default
  5363                           ;	In-Circuit Debugger Mode bit
  5364                           ;	DEBUG = 0x1, unprogrammed default
  5365                           ;	Flash Program Memory Code Protection bit
  5366                           ;	CP = 0x1, unprogrammed default
  5367     2007                     	org	8199
  5368     2007  3FFB               	dw	16379

Data Sizes:
    Strings     231
    Constant    0
    Data        2
    BSS         11
    Persistent  0
    Stack       0

Auto Spaces:
    Space          Size  Autos    Used
    COMMON           14      9      12
    BANK0            80     20      30
    BANK1            80      0       0
    BANK3            96      0       0
    BANK2            96      0       0

Pointer List with Targets:

    clcd_print@str	PTR const unsigned char  size(1) Largest target is 17
		 -> STR_1(CODE[12]), STR_10(CODE[17]), STR_11(CODE[8]), STR_12(CODE[15]), 
		 -> STR_13(CODE[8]), STR_14(CODE[7]), STR_15(CODE[8]), STR_16(CODE[16]), 
		 -> STR_17(CODE[17]), STR_18(CODE[7]), STR_19(CODE[17]), STR_2(CODE[12]), 
		 -> STR_20(CODE[12]), STR_21(CODE[11]), STR_22(CODE[5]), STR_3(CODE[15]), 
		 -> STR_4(CODE[8]), STR_5(CODE[8]), STR_6(CODE[13]), STR_7(CODE[8]), 
		 -> STR_8(CODE[17]), STR_9(CODE[7]), 


Critical Paths under _main in COMMON

    _set_temp->___lwdiv
    _clear_screen->_clcd_write
    ___lwmod->___lwdiv
    ___awmod->___awdiv
    _read_matrix_keypad->_scan_keypad
    _clcd_putch->___lwdiv
    _init_clcd->_init_display_controller
    _init_display_controller->_clcd_write
    _display_menu_screen->_clcd_print
    _clcd_print->_clcd_write

Critical Paths under _isr in COMMON

    None.

Critical Paths under _main in BANK0

    _main->_power_on_screen
    _main->_set_temp
    _main->_set_time
    _time_display->_clcd_putch
    _set_time->_clcd_putch
    _set_temp->_clcd_putch
    ___awmod->___awdiv
    _power_on_screen->_clcd_putch
    _clcd_putch->___awmod

Critical Paths under _isr in BANK0

    None.

Critical Paths under _main in BANK1

    None.

Critical Paths under _isr in BANK1

    None.

Critical Paths under _main in BANK3

    None.

Critical Paths under _isr in BANK3

    None.

Critical Paths under _main in BANK2

    None.

Critical Paths under _isr in BANK2

    None.

Call Graph Tables:

 ---------------------------------------------------------------------------------
 (Depth) Function   	        Calls       Base Space   Used Autos Params    Refs
 ---------------------------------------------------------------------------------
 (0) _main                                                 5     5      0    6524
                                             15 BANK0      5     5      0
                         _clcd_print
                       _clear_screen
                _display_menu_screen
                          _heat_food
                        _init_config
                    _power_on_screen
                 _read_matrix_keypad
                           _set_temp
                           _set_time
                       _time_display
 ---------------------------------------------------------------------------------
 (1) _time_display                                         3     3      0    1014
                                             10 BANK0      3     3      0
                            ___awdiv
                            ___awmod
                         _clcd_print
                         _clcd_putch
                       _clear_screen
 ---------------------------------------------------------------------------------
 (1) _set_time                                             5     4      1    1623
                                             10 BANK0      5     4      1
                            ___awdiv
                            ___awmod
                             ___bmul
                         _clcd_print
                         _clcd_putch
                       _clear_screen
 ---------------------------------------------------------------------------------
 (2) ___bmul                                               3     2      1       6
                                              2 COMMON     3     2      1
 ---------------------------------------------------------------------------------
 (1) _set_temp                                             5     4      1    2040
                                             10 BANK0      5     4      1
                            ___awdiv
                            ___awmod
                            ___lwdiv
                            ___lwmod
                             ___wmul
                         _clcd_print
                         _clcd_putch
                       _clear_screen
 ---------------------------------------------------------------------------------
 (2) _clear_screen                                         2     2      0      92
                                              6 COMMON     2     2      0
                         _clcd_write
 ---------------------------------------------------------------------------------
 (2) ___wmul                                               6     2      4      94
                                              2 COMMON     6     2      4
 ---------------------------------------------------------------------------------
 (2) ___lwmod                                              5     1      4     244
                                              0 BANK0      5     1      4
                            ___lwdiv (ARG)
 ---------------------------------------------------------------------------------
 (2) ___lwdiv                                              7     3      4     166
                                              2 COMMON     7     3      4
 ---------------------------------------------------------------------------------
 (2) ___awmod                                              6     2      4     449
                                              6 COMMON     2     2      0
                                              4 BANK0      4     0      4
                            ___awdiv (ARG)
 ---------------------------------------------------------------------------------
 (2) ___awdiv                                              8     4      4     102
                                              2 COMMON     4     0      4
                                              0 BANK0      4     4      0
 ---------------------------------------------------------------------------------
 (1) _read_matrix_keypad                                   2     2      0     210
                                              4 COMMON     2     2      0
                        _scan_keypad
 ---------------------------------------------------------------------------------
 (2) _scan_keypad                                          2     2      0      92
                                              2 COMMON     2     2      0
 ---------------------------------------------------------------------------------
 (1) _power_on_screen                                      5     5      0     507
                                             10 BANK0      5     5      0
                         _clcd_print
                         _clcd_putch
 ---------------------------------------------------------------------------------
 (2) _clcd_putch                                           2     1      1     168
                                              8 BANK0      2     1      1
                            ___awdiv (ARG)
                            ___awmod (ARG)
                            ___lwdiv (ARG)
                            ___lwmod (ARG)
                         _clcd_write
 ---------------------------------------------------------------------------------
 (1) _init_config                                          0     0      0      92
                          _init_clcd
                 _init_matrix_keypad
                        _init_timer2
 ---------------------------------------------------------------------------------
 (2) _init_timer2                                          0     0      0       0
 ---------------------------------------------------------------------------------
 (2) _init_matrix_keypad                                   0     0      0       0
 ---------------------------------------------------------------------------------
 (2) _init_clcd                                            0     0      0      92
            _init_display_controller
 ---------------------------------------------------------------------------------
 (3) _init_display_controller                              2     2      0      92
                                              6 COMMON     2     2      0
                         _clcd_write
 ---------------------------------------------------------------------------------
 (1) _heat_food                                            0     0      0       0
 ---------------------------------------------------------------------------------
 (1) _display_menu_screen                                  0     0      0     203
                         _clcd_print
 ---------------------------------------------------------------------------------
 (2) _clcd_print                                           2     0      2     203
                                              6 COMMON     2     0      2
                         _clcd_write
 ---------------------------------------------------------------------------------
 (4) _clcd_write                                           4     3      1      92
                                              2 COMMON     4     3      1
 ---------------------------------------------------------------------------------
 Estimated maximum stack depth 4
 ---------------------------------------------------------------------------------
 (Depth) Function   	        Calls       Base Space   Used Autos Params    Refs
 ---------------------------------------------------------------------------------
 (5) _isr                                                  2     2      0       0
                                              0 COMMON     2     2      0
 ---------------------------------------------------------------------------------
 Estimated maximum stack depth 5
 ---------------------------------------------------------------------------------

 Call Graph Graphs:

 _main (ROOT)
   _clcd_print
     _clcd_write
   _clear_screen
     _clcd_write
   _display_menu_screen
     _clcd_print
   _heat_food
   _init_config
     _init_clcd
       _init_display_controller
         _clcd_write
     _init_matrix_keypad
     _init_timer2
   _power_on_screen
     _clcd_print
     _clcd_putch
       ___awdiv (ARG)
       ___awmod (ARG)
         ___awdiv (ARG)
       ___lwdiv (ARG)
       ___lwmod (ARG)
         ___lwdiv (ARG)
       _clcd_write (ARG)
   _read_matrix_keypad
     _scan_keypad
   _set_temp
     ___awdiv
     ___awmod
     ___lwdiv
     ___lwmod
     ___wmul
     _clcd_print
     _clcd_putch
     _clear_screen
   _set_time
     ___awdiv
     ___awmod
     ___bmul
     _clcd_print
     _clcd_putch
     _clear_screen
   _time_display
     ___awdiv
     ___awmod
     _clcd_print
     _clcd_putch
     _clear_screen

 _isr (ROOT)

Address spaces:
Name               Size   Autos  Total    Usage
BANK3               96      0       0      0.0%
BITBANK3            96      0       0      0.0%
BANK2               96      0       0      0.0%
BITBANK2            96      0       0      0.0%
BANK1               80      0       0      0.0%
BITBANK1            80      0       0      0.0%
BANK0               80     20      30     37.5%
BITBANK0            80      0       0      0.0%
COMMON              14      9      12     85.7%
BITCOMMON           14      0       0      0.0%
DATA                 0      0      40      0.0%
STACK                0      0       0      0.0%


Microchip Technology PIC Macro Assembler V3.10 build 20250813170317 
Symbol Table                                                                                   Tue Jan 20 15:42:57 2026

                              pc 0002                   ___bmul@product 0073                   clcd_print@addr 0077  
                             l20 0482                               l23 0DF7                               l32 0E79  
                             l17 0EF9                               l26 0E54                               l83 07FF  
                   ___awdiv@sign 0021                               fsr 0004              ___wmul@multiplicand 0074  
             _init_matrix_keypad 0DF8                              l114 03D5                              l115 03D8  
                            l150 06F1                              l151 077C                              l320 0DEC  
                            l144 0E07                              l160 0727                              l152 06FD  
                            l161 0721                              l153 06F7                              l234 0E3F  
                            l316 01B2                              l149 06E9                              l317 01BC  
                            l174 0767                              l166 073D                              l158 0713  
                            l406 0EAB                              l263 0FFF                              l175 076F  
                            l167 0745                              l159 071B                              l168 0751  
                            l408 0EC3                              l432 0E2B                              l177 0775  
                            l169 074B                              l185 04FE                              l266 0E18  
                            l292 02F4                              l269 0E9E                              l296 06D0  
                            l572 04DB                              l559 07E1                              l686 0FB2  
                            l696 0F33                              _GIE 005F                              _RB0 0030  
                            _RB1 0031                              _RB2 0032                              _RC1 0039  
                            _RC2 003A                              _RD0 0040                              _RD1 0041  
                            _RD2 0042                              _RE1 0049                              _RD3 0043  
                            _RE2 004A                              _PR2 0092                              u900 0E79  
                            u901 0E78                              u910 06E9                              u911 06E8  
                            u920 06EF                              u921 06EE                              u930 06F5  
                            u931 06F4                              u940 06FB                              u941 06FA  
                            u870 0ECC                              u950 0713                              u871 0EC8  
                            u951 0712                              u960 0719                              u961 0718  
                            u970 071F                              u971 071E                              u884 0ECF  
                            u980 0725                              u981 0724                              u990 073D  
                            u895 0EDF                              u991 073C                              _min 003B  
                            _sec 003C                              _isr 0F34                   clcd_putch@addr 0028  
                            fsr0 0004                   clcd_putch@data 0029                     ___awmod@sign 0077  
            ?_init_matrix_keypad 0070                             l2020 0DE8                             l2022 0DE9  
                           l2024 0DEA                             l2016 0DE3                             l2018 0DE7  
                           l1500 0ECF                             l2220 048A                             l1510 0EE7  
                           l1502 0ED2                             l2230 04A0                             l2222 048F  
                           l1512 0EE8                             l1504 0ED3                             l1520 0428  
                           l1600 0701                             l2240 04BA                             l2232 04A3  
                           l2224 0491                             l2216 0483                             l2160 0E1B  
                           l1514 0EED                             l1506 0ED8                             l1530 044E  
                           l1522 042F                             l1610 071F                             l1602 0705  
                           l2250 04D7                             l2242 04C0                             l2234 04AA  
                           l2226 0495                             l2218 0484                             l2162 0E1F  
                           l1516 0EF0                             l1508 0EDB                             l1540 047D  
                           l1532 0455                             l1524 043F                             l1620 072B  
                           l1604 0719                             l2244 04C7                             l2236 04AC  
                           l2228 049A                             l2260 0F0C                             l2164 0E21  
                           l1534 0461                             l1526 0444                             l1518 0420  
                           l1542 0DED                             l1550 0E43                             l1630 0749  
                           l1622 072F                             l2238 04B0                             l2246 04CD  
                           l2270 0F29                             l2262 0F0E                             l2254 0EFA  
                           l2166 0E23                             l2158 0E1A                             l1552 0E55  
                           l1536 0466                             l1528 044B                             l1544 0DF0  
                           l1560 0DF8                             l1640 0755                             l1624 0743  
                           l1616 0725                             l2248 04D2                             l1720 0F79  
                           l2264 0F12                             l2256 0F02                             l2272 0F2F  
                           l2168 0E2A                             l2600 01C7                             l1554 0E5D  
                           l1538 0476                             l1546 0DF1                             l1570 0E06  
                           l1562 0E00                             l1810 0FB3                             l1650 0773  
                           l1642 0759                             l1802 04F6                             l1730 0F9A  
                           l1722 0F7C                             l2266 0F1C                             l2258 0F05  
                           l2610 01EE                             l2602 01CB                             l1556 0E6B  
                           l1548 0DF2                             l1564 0E01                             l1572 0E2C  
                           l1820 0FC3                             l1660 077B                             l1644 076D  
                           l1636 074F                             l1580 06D7                             l1804 04FB  
                           l1732 0FA0                             l1724 0F83                             l1716 0F71  
                           l2268 0F22                             l2700 0032                             l2620 020D  
                           l2612 01F4                             l2604 01D4                             l1558 0E6D  
                           l1566 0E04                             l1830 0FDE                             l1822 0FC9  
                           l1590 06F5                             l1582 06DB                             l1806 04FD  
                           l1734 0FA1                             l1726 0F85                             l1718 0F73  
                           l1670 0EB2                             l1574 0E08                             l2710 0052  
                           l2702 0034                             l2630 022A                             l2622 020F  
                           l2614 01F9                             l2606 01DD                             l1568 0E05  
                           l1832 0FE7                             l1824 0FDB                             l1816 0FB6  
                           l1656 0779                             l1584 06EF                             l2560 078B  
                           l2552 077D                             l1736 0FA8                             l1728 0F89  
                           l1672 0EB9                             l1664 0E9F                             l1576 0E0F  
                           l2720 007B                             l2712 005C                             l2704 0037  
                           l2640 023C                             l2632 022F                             l2624 0215  
                           l2616 01FB                             l2608 01E6                             l2800 0353  
                           l1498 0EC5                             l1770 07F2                             l1834 0FEB  
                           l1818 0FBF                             l1578 06D1                             l2570 079E  
                           l2562 078F                             l2554 0780                             l1738 0FAE  
                           l1674 0EBF                             l1666 0EA1                             l2730 00EC  
                           l2722 00D3                             l2714 0066                             l2706 0040  
                           l2650 0271                             l2642 0240                             l2634 0230  
                           l2626 0221                             l2618 0201                             l2810 0364  
                           l2802 0358                             l1772 07F5                             l1764 07E2  
                           l1836 0FF1                             l1596 06FB                             l1780 04DD  
                           l2580 07BF                             l2572 07A1                             l2564 0794  
                           l2556 0784                             l1668 0EA5                             l2740 0116  
                           l2732 0103                             l2724 00DB                             l2716 0070  
                           l2708 0049                             l2652 0275                             l2636 0233  
                           l2644 0245                             l2628 0224                             l2660 0611  
                           l2820 0376                             l2812 0369                             l2804 035B  
                           l1838 0E7A                             l1774 07F8                             l1766 07EC  
                           l1790 04EA                             l1782 04E3                             l2590 07D8  
                           l2582 07C5                             l2574 07A8                             l2566 0796  
                           l2558 0789                             l2750 013A                             l2742 011F  
                           l2726 00E1                             l2734 0106                             l2718 0074  
                           l2654 027C                             l2646 024C                             l2638 0236  
                           l2670 0679                             l2662 062E                             l2822 037C  
                           l2830 038E                             l2814 036D                             l1776 07FD  
                           l1768 07EF                             l1792 04EF                             l1784 04E8  
                           l2592 07DD                             l2584 07C6                             l2576 07AA  
                           l2568 0798                             l2760 01B3                             l2752 0143  
                           l2744 0123                             l2736 010C                             l2728 00E6  
                           l2648 025F                             l2680 069C                             l2672 0682  
                           l2664 0638                             l2656 05ED                             l2840 03A6  
                           l2832 0394                             l2824 0381                             l2808 035E  
                           l1778 07FE                             l1794 04F4                             l2586 07CD  
                           l2578 07AE                             l2762 01B8                             l2754 0147  
                           l2746 0128                             l2738 0110                             l2690 06B5  
                           l2682 069F                             l2674 068B                             l2666 0653  
                           l2658 05F6                             l2850 03C0                             l2842 03AC  
                           l2834 0397                             l2826 0383                             l2818 0370  
                           l2770 0306                             l2588 07D3                             l2756 0149  
                           l2748 0131                             l2596 01C0                             l2692 06C4  
                           l2684 06A0                             l2676 0692                             l2668 0670  
                           l2860 03E4                             l2852 03C6                             l2844 03B1  
                           l2836 039D                             l2828 0389                             l2780 031B  
                           l2772 030C                             l2764 02F5                             l2758 01AB  
                           l2598 01C5                             l2694 06C7                             l2686 06A9  
                           l2678 0697                             l2862 03ED                             l2854 03CF  
                           l2870 0419                             l2846 03B6                             l2838 03A0  
                           l2790 0342                             l2782 0324                             l2774 0311  
                           l2766 02F8                             l2696 06CC                             l2688 06B2  
                           l2864 03F6                             l2856 03DA                             l2848 03BA  
                           l2792 0347                             l2784 0332                             l2776 0316  
                           l2768 02FD                             l2698 002D                             l2858 03DF  
                           l2794 034A                             l2786 0337                             l2778 031A  
                           l2868 03FC                             l2788 033C                             l2798 034D  
                           ?_isr 0070                             STR_1 058C                             STR_2 0574  
                           STR_3 0558                             STR_4 05C3                             STR_5 05BB  
                           STR_6 0567                             STR_7 05CB                             STR_8 0506  
                           STR_9 05D3                             u1000 0743                             u1001 0742  
                           u1010 0749                             u1011 0748                             u1020 074F  
                           u1100 0EBF                             u1021 074E                             u1101 0EBE  
                           u1030 0767                             u1031 0766                             u1040 076D  
                           u2000 04CD                             u1200 0F79                             u1041 076C  
                           u2001 04CC                             u1201 0F78                             u1050 0773  
                           u2010 04D2                             u1051 0772                             u2011 04D1  
                           u1060 0779                             u1220 0F89                             u2020 0F02  
                           u1061 0778                             u1221 0F88                             u2021 0F01  
                           u1070 0EA5                             u1215 0F7D                             u1071 0EA4  
                           u1240 0F9A                             u2040 0F12                             u1241 0F99  
                           u2041 0F11                             u1330 04E8                             u2050 0F1C  
                           u1331 04E7                             u1235 0F8A                             u2051 0F1B  
                           u2035 0F06                             u1340 04EF                             u1260 0FAE  
                           u1341 04EE                             u1261 0FAD                             u1245 0F96  
                           u1085 0EAC                             u1350 04F4                             u2070 0F2F  
                           u3007 047F                             u1351 04F3                             u1255 0FA2  
                           u2071 0F2E                             u2055 0F18                             u1095 0EB3  
                           u1360 04FB                             u3017 0ED5                             u1361 04FA  
                           u2065 0F23                             u1370 0FC9                             u3027 0EEA  
                           u1371 0FC8                             u1380 0FF1                             u2500 07BF  
                           u3037 0EF4                             u1381 0FF0                             u2501 07BE  
                           u2520 07D3                             u2440 0784                             u2600 022A  
                           u2521 07D2                             u2505 07BB                             u2441 0783  
                           u2601 0229                             u2530 07D8                             u2450 078F  
                           u1810 0E1F                             u2610 022F                             u2531 07D7  
                           u2515 07C7                             u2451 078E                             u1811 0E1E  
                           u2611 022E                             u2460 079E                             u2700 00E1  
                           u1820 0E2A                             u2620 023C                             u2540 01C5  
                           u2461 079D                             u2701 00E0                             u1821 0E29  
                           u2621 023B                             u2541 01C4                             u2710 00E6  
                           u2630 024C                             u2550 01EE                             u2711 00E5  
                           u2631 024B                             u2551 01ED                             u2480 07AE  
                           u2720 00EC                             u2640 027C                             u2560 01F4  
                           u2800 0353                             u2481 07AD                             u2721 00EB  
                           u2641 027B                             u2561 01F3                             u2801 0352  
                           u1930 048A                             u2730 010C                             u2570 01F9  
                           u2650 0692                             u2810 0364                             u2475 07A2  
                           u1931 0489                             u2731 010B                             u2571 01F8  
                           u2651 0691                             u2811 0363                             u1940 0495  
                           u2740 0116                             u2580 0201                             u2660 0697  
                           u2820 0376                             u1941 0494                             u2741 0115  
                           u2581 0200                             u2661 0696                             u2821 0375  
                           u1950 04A0                             u2750 011F                             u2670 0032  
                           u2590 0215                             u2830 037C                             u2495 07AF  
                           u1951 049F                             u2751 011E                             u2671 0031  
                           u2591 0214                             u2831 037B                             u2760 01B2  
                           u2680 007B                             u2840 0381                             u2761 01B1  
                           u2681 007A                             u2841 0380                             u1970 04B0  
                           u2690 00DB                             u2850 0389                             u2770 030C  
                           u1971 04AF                             u2691 00DA                             u2851 0388  
                           u2907 032C                             u2771 030B                             _PEIE 005E  
                           u1980 04BA                             u2860 0394                             u2780 0311  
                           u1981 04B9                             u1965 04A4                             u2917 06BD  
                           u2861 0393                             u2781 0310                             u2870 039D  
                           u2790 0342                             u2927 0E13                             u2871 039C  
                           u2791 0341                             u2880 03A6                             u2937 0FF9  
                           u1985 04B6                             u2881 03A5                             u2890 03AC  
                           u2947 0424                             u1995 04C1                             u2891 03AB  
                           u2957 0433                             u2967 0441                             u2977 0457  
                           u2987 0463                             u2997 0471                             _main 02F5  
                           btemp 007E                             start 000C                ___bmul@multiplier 0074  
           ??_init_matrix_keypad 0072                   clcd_write@byte 0075                   clcd_write@mode 0072  
        __end_of_power_on_screen 1000                            ??_isr 0070                            ?_main 0070  
                __end_of___awdiv 07E2                            STR_10 0528                            STR_11 05A3  
                          STR_20 0580                            STR_12 0549                            STR_13 05AB  
                          STR_21 0598                            STR_22 05E8                            STR_14 05E1  
                          STR_15 05B3                            STR_16 0539                            STR_17 0517  
                          STR_18 05DA                            STR_19 0528                  __end_of___awmod 04DC  
                ___awdiv@divisor 0072                  __end_of___lwdiv 0FB3                            i1l211 0F6A  
                __end_of___lwmod 0F34                     ?_init_config 0070                  ___awdiv@counter 0020  
                          _PORTD 0008                            _TRISB 0086                            _TRISD 0088  
                   ?_init_timer2 0070             __end_of_clear_screen 0E19                            _nRBPU 040F  
             _read_matrix_keypad 04DC                            _count 0079                            btemp0 007E  
                          btemp1 007F                            pclath 000A              ?_read_matrix_keypad 0070  
                          status 0003                            wtemp0 007E                     ?_scan_keypad 0070  
                __initialization 000F                     __end_of_main 0420             ??_read_matrix_keypad 0074  
                         ??_main 002F                 ___awdiv@dividend 0074                           i1l2140 0F4B  
                         i1l2150 0F5F                           i1l2142 0F50                           i1l2134 0F34  
                         i1l2152 0F62                           i1l2144 0F53                           i1l2136 0F3A  
                         i1l2154 0F67                           i1l2146 0F58                           i1l2138 0F49  
                         i1l2148 0F5D                           i1l2156 0F69                           u180_20 0F67  
                         u180_21 0F66                           u175_20 0F3A                           u175_21 0F39  
                         u176_20 0F49                           u176_21 0F48                           u177_20 0F50  
                         u177_21 0F4F                           u178_20 0F58                           u178_21 0F57  
                         u179_20 0F5D                           u179_21 0F5C                           _TMR2IE 0461  
                         _TMR2IF 0061                           _TMR2ON 0092                           _TRISC1 0439  
                         _TRISC2 043A                           _TRISE1 0449                           _TRISE2 044A  
                         ___bmul 0E19          _init_display_controller 0420                           ___wmul 0E9F  
                      ??___awdiv 0076                 ?_power_on_screen 0070                        ??___awmod 0076  
                      ??___lwdiv 0076                        ??___lwmod 0079                 ___awdiv@quotient 0022  
                ___awmod@divisor 0024                  ___awmod@counter 0076                     __pdataCOMMON 007B  
               __end_of_set_temp 01BD                 __end_of_set_time 02F5                           ltemp0a 0080  
                         saved_w 007E                           ttemp0a 007F                           wtemp0a 007F  
        __end_of__initialization 0026              ___bmul@multiplicand 0072                   __pcstackCOMMON 0070  
                   __pidataBANK0 0003      __end_of_display_menu_screen 0E9F                       __pbssBANK0 0034  
      ??_init_display_controller 0076                       _clcd_print 0E55                       _clcd_putch 0E40  
                     _clcd_write 0EC4                       __pmaintext 02F5                     _clear_screen 0E08  
                        ?___bmul 0072                          ?___wmul 0072                       __pintentry 0004  
                        _T2CKPS0 0090                          _T2CKPS1 0091                          _TOUTPS0 0093  
                        _TOUTPS1 0094                          _TOUTPS2 0095                          _TOUTPS3 0096  
                     __stringtab 0500                __end_of_heat_food 0DED                        ?_set_temp 002A  
                      ?_set_time 002A                          ___awdiv 077D                          ___awmod 0483  
                        ___lwdiv 0F71                          ___lwmod 0EFA                          __ptext1 05ED  
                        __ptext2 01BD                          __ptext3 0E19                          __ptext4 002A  
                        __ptext5 0E08                          __ptext6 0E9F                          __ptext7 0EFA  
                        __ptext8 0F71                          __ptext9 0483  __end_of_init_display_controller 0483  
              __end_of_init_clcd 0DF8                 ___awmod@dividend 0026                    ?_time_display 0070  
                        main@key 0033             end_of_initialization 0026                      set_temp@key 002E  
                    set_time@key 002E                      ?_clcd_print 0076                      ?_clcd_putch 0028  
                    ?_clcd_write 0072                       _reset_flag 003A                       ??_set_temp 002B  
                     ??_set_time 002B                   main@start_mode 0032                   ??_time_display 002A  
                  clcd_print@str 0076               set_temp@reset_flag 002A                   __end_of___bmul 0E2C  
                 __end_of___wmul 0EC4                    __pidataCOMMON 04FF              start_initialization 000F  
                   scan_keypad@i 0072           read_matrix_keypad@mode 0074           read_matrix_keypad@once 007B  
                    __end_of_isr 0F71                         ??___bmul 0073                         ??___wmul 0076  
                    __pdataBANK0 003D                    ??_init_config 0078                    ??_init_timer2 0072  
                    __pbssCOMMON 0079                        ___latbits 0002                    __pcstackBANK0 0020  
                  ??_scan_keypad 0072                 ___lwdiv@dividend 0074             power_on_screen@i_175 002E  
           __end_of_time_display 06D1                         ?___awdiv 0072                         ?___awmod 0024  
                      _heat_food 0DE3                         ?___lwdiv 0072                         ?___lwmod 0020  
                      __pstrings 0500               set_time@reset_flag 002A                    _pre_heat_time 0039  
               ___lwdiv@quotient 0076                        _init_clcd 0DED              __end_of_init_config 0800  
              ??_power_on_screen 002A              __end_of_init_timer2 0E40         ?_init_display_controller 0070  
              interrupt_function 0004                   ___wmul@product 0076                     ??_clcd_print 0078  
                   ??_clcd_putch 0079       __end_of_init_matrix_keypad 0E08                     ??_clcd_write 0073  
              set_temp@key_count 0036              __end_of_scan_keypad 077D                       ?_heat_food 0070  
                    __stringbase 0505                ___wmul@multiplier 0072               __end_of_clcd_print 0E7A  
             __end_of_clcd_putch 0E55               __end_of_clcd_write 0EFA                       ?_init_clcd 0070  
          read_matrix_keypad@key 0075                set_time@blink_pos 0038       __end_of_read_matrix_keypad 04FF  
             __end_of__stringtab 0506                set_time@key_count 0037                      _init_config 07E2  
               _operational_flag 003D                      _init_timer2 0E2C                  ___lwdiv@divisor 0072  
                ___lwdiv@counter 0078                         __ptext10 077D                         __ptext11 04DC  
                       __ptext20 0DE3                         __ptext12 06D1                         __ptext21 0E7A  
                       __ptext13 0FB3                         __ptext22 0E55                         __ptext14 0E40  
                       __ptext23 0EC4                         __ptext15 07E2                         __ptext24 0F34  
                       __ptext16 0E2C                         __ptext17 0DF8                         __ptext18 0DED  
                       __ptext19 0420                      _scan_keypad 06D1                    ?_clear_screen 0070  
                       _set_temp 002A                         _set_time 01BD                      ??_heat_food 0072  
            _display_menu_screen 0E7A                     set_temp@temp 0034                     set_temp@wait 002D  
                   set_time@wait 002D                      ??_init_clcd 0078                     _time_display 05ED  
                       intlevel1 0000                 ___lwmod@dividend 0022             ?_display_menu_screen 0070  
                      stringcode 0500                   ??_clear_screen 0076                  _power_on_screen 0FB3  
                ___lwmod@divisor 0020                  ___lwmod@counter 0024                         stringdir 0500  
                       stringtab 0500                 power_on_screen@i 002D            ??_display_menu_screen 0078  
